

Microchip MPLAB XC8 Assembler V2.32 build 20210201212658 
                                                                                               Thu Aug 12 15:12:45 2021

Microchip MPLAB XC8 C Compiler v2.32 (Free license) build 20210201212658 Og1 
     1                           	processor	16F887
     2                           	pagewidth 120
     3                           	opt	flic
     4                           	psect	strings,global,class=STRING,delta=2,noexec
     5                           	psect	cinit,global,class=CODE,merge=1,delta=2
     6                           	psect	bssBANK0,global,class=BANK0,space=1,delta=1,noexec
     7                           	psect	cstackCOMMON,global,class=COMMON,space=1,delta=1,noexec
     8                           	psect	cstackBANK0,global,class=BANK0,space=1,delta=1,noexec
     9                           	psect	maintext,global,class=CODE,split=1,delta=2
    10                           	psect	text1,local,class=CODE,merge=1,delta=2
    11                           	psect	text2,local,class=CODE,merge=1,delta=2
    12                           	psect	text3,local,class=CODE,merge=1,delta=2,group=1
    13                           	psect	text4,local,class=CODE,merge=1,delta=2
    14                           	psect	text5,local,class=CODE,merge=1,delta=2,group=1
    15                           	psect	text6,local,class=CODE,merge=1,delta=2,group=1
    16                           	psect	text7,local,class=CODE,merge=1,delta=2,group=1
    17                           	psect	text8,local,class=CODE,merge=1,delta=2,group=1
    18                           	psect	text9,local,class=CODE,merge=1,delta=2,group=1
    19                           	psect	text10,local,class=CODE,merge=1,delta=2,group=1
    20                           	psect	text11,local,class=CODE,merge=1,delta=2
    21                           	psect	text12,local,class=CODE,merge=1,delta=2
    22                           	psect	text13,local,class=CODE,merge=1,delta=2
    23                           	psect	text14,local,class=CODE,merge=1,delta=2
    24                           	psect	text15,local,class=CODE,merge=1,delta=2
    25                           	psect	text16,local,class=CODE,merge=1,delta=2
    26                           	psect	text17,local,class=CODE,merge=1,delta=2
    27                           	psect	text18,local,class=CODE,merge=1,delta=2
    28                           	psect	text19,local,class=CODE,merge=1,delta=2
    29                           	psect	text20,local,class=CODE,merge=1,delta=2
    30                           	psect	text21,local,class=CODE,merge=1,delta=2
    31                           	psect	text22,local,class=CODE,merge=1,delta=2
    32                           	psect	text23,local,class=CODE,merge=1,delta=2
    33                           	psect	config,global,abs,ovrld,class=CONFIG,space=4,delta=2,noexec
    34                           	dabs	1,0x7E,2
    35  0000                     
    36                           ; Version 2.20
    37                           ; Generated 12/02/2020 GMT
    38                           ; 
    39                           ; Copyright © 2020, Microchip Technology Inc. and its subsidiaries ("Microchip")
    40                           ; All rights reserved.
    41                           ; 
    42                           ; This software is developed by Microchip Technology Inc. and its subsidiaries ("Microch
      +                          ip").
    43                           ; 
    44                           ; Redistribution and use in source and binary forms, with or without modification, are
    45                           ; permitted provided that the following conditions are met:
    46                           ; 
    47                           ;     1. Redistributions of source code must retain the above copyright notice, this lis
      +                          t of
    48                           ;        conditions and the following disclaimer.
    49                           ; 
    50                           ;     2. Redistributions in binary form must reproduce the above copyright notice, this 
      +                          list
    51                           ;        of conditions and the following disclaimer in the documentation and/or other
    52                           ;        materials provided with the distribution.
    53                           ; 
    54                           ;     3. Microchip's name may not be used to endorse or promote products derived from th
      +                          is
    55                           ;        software without specific prior written permission.
    56                           ; 
    57                           ; THIS SOFTWARE IS PROVIDED BY MICROCHIP "AS IS" AND ANY EXPRESS OR IMPLIED WARRANTIES,
    58                           ; INCLUDING, BUT NOT LIMITED TO, THE IMPLIED WARRANTIES OF MERCHANTABILITY AND FITNESS F
      +                          OR
    59                           ; PURPOSE ARE DISCLAIMED.  IN NO EVENT SHALL MICROCHIP BE LIABLE FOR ANY DIRECT, INDIREC
      +                          T,
    60                           ; INCIDENTAL, SPECIAL, EXEMPLARY, OR CONSEQUENTIAL DAMAGES (INCLUDING BUT NOT LIMITED TO
    61                           ; PROCUREMENT OF SUBSTITUTE GOODS OR SERVICES; LOSS OF USE, DATA OR PROFITS; OR BUSINESS
    62                           ; INTERRUPTION) HOWSOEVER CAUSED AND ON ANY THEORY OF LIABILITY, WHETHER IN CONTRACT, ST
      +                          RICT
    63                           ; LIABILITY, OR TORT (INCLUDING NEGLIGENCE OR OTHERWISE) ARISING IN ANY WAY OUT OF THE U
      +                          SE OF
    64                           ; THIS SOFTWARE, EVEN IF ADVISED OF THE POSSIBILITY OF SUCH DAMAGE.
    65                           ; 
    66                           ; 
    67                           ; Code-generator required, PIC16F887 Definitions
    68                           ; 
    69                           ; SFR Addresses
    70  0000                     	;# 
    71  0001                     	;# 
    72  0002                     	;# 
    73  0003                     	;# 
    74  0004                     	;# 
    75  0005                     	;# 
    76  0006                     	;# 
    77  0007                     	;# 
    78  0008                     	;# 
    79  0009                     	;# 
    80  000A                     	;# 
    81  000B                     	;# 
    82  000C                     	;# 
    83  000D                     	;# 
    84  000E                     	;# 
    85  000E                     	;# 
    86  000F                     	;# 
    87  0010                     	;# 
    88  0011                     	;# 
    89  0012                     	;# 
    90  0013                     	;# 
    91  0014                     	;# 
    92  0015                     	;# 
    93  0015                     	;# 
    94  0016                     	;# 
    95  0017                     	;# 
    96  0018                     	;# 
    97  0019                     	;# 
    98  001A                     	;# 
    99  001B                     	;# 
   100  001B                     	;# 
   101  001C                     	;# 
   102  001D                     	;# 
   103  001E                     	;# 
   104  001F                     	;# 
   105  0081                     	;# 
   106  0085                     	;# 
   107  0086                     	;# 
   108  0087                     	;# 
   109  0088                     	;# 
   110  0089                     	;# 
   111  008C                     	;# 
   112  008D                     	;# 
   113  008E                     	;# 
   114  008F                     	;# 
   115  0090                     	;# 
   116  0091                     	;# 
   117  0092                     	;# 
   118  0093                     	;# 
   119  0093                     	;# 
   120  0093                     	;# 
   121  0094                     	;# 
   122  0095                     	;# 
   123  0096                     	;# 
   124  0097                     	;# 
   125  0098                     	;# 
   126  0099                     	;# 
   127  009A                     	;# 
   128  009B                     	;# 
   129  009C                     	;# 
   130  009D                     	;# 
   131  009E                     	;# 
   132  009F                     	;# 
   133  0105                     	;# 
   134  0107                     	;# 
   135  0108                     	;# 
   136  0109                     	;# 
   137  010C                     	;# 
   138  010C                     	;# 
   139  010D                     	;# 
   140  010E                     	;# 
   141  010F                     	;# 
   142  0185                     	;# 
   143  0187                     	;# 
   144  0188                     	;# 
   145  0189                     	;# 
   146  018C                     	;# 
   147  018D                     	;# 
   148  0000                     	;# 
   149  0001                     	;# 
   150  0002                     	;# 
   151  0003                     	;# 
   152  0004                     	;# 
   153  0005                     	;# 
   154  0006                     	;# 
   155  0007                     	;# 
   156  0008                     	;# 
   157  0009                     	;# 
   158  000A                     	;# 
   159  000B                     	;# 
   160  000C                     	;# 
   161  000D                     	;# 
   162  000E                     	;# 
   163  000E                     	;# 
   164  000F                     	;# 
   165  0010                     	;# 
   166  0011                     	;# 
   167  0012                     	;# 
   168  0013                     	;# 
   169  0014                     	;# 
   170  0015                     	;# 
   171  0015                     	;# 
   172  0016                     	;# 
   173  0017                     	;# 
   174  0018                     	;# 
   175  0019                     	;# 
   176  001A                     	;# 
   177  001B                     	;# 
   178  001B                     	;# 
   179  001C                     	;# 
   180  001D                     	;# 
   181  001E                     	;# 
   182  001F                     	;# 
   183  0081                     	;# 
   184  0085                     	;# 
   185  0086                     	;# 
   186  0087                     	;# 
   187  0088                     	;# 
   188  0089                     	;# 
   189  008C                     	;# 
   190  008D                     	;# 
   191  008E                     	;# 
   192  008F                     	;# 
   193  0090                     	;# 
   194  0091                     	;# 
   195  0092                     	;# 
   196  0093                     	;# 
   197  0093                     	;# 
   198  0093                     	;# 
   199  0094                     	;# 
   200  0095                     	;# 
   201  0096                     	;# 
   202  0097                     	;# 
   203  0098                     	;# 
   204  0099                     	;# 
   205  009A                     	;# 
   206  009B                     	;# 
   207  009C                     	;# 
   208  009D                     	;# 
   209  009E                     	;# 
   210  009F                     	;# 
   211  0105                     	;# 
   212  0107                     	;# 
   213  0108                     	;# 
   214  0109                     	;# 
   215  010C                     	;# 
   216  010C                     	;# 
   217  010D                     	;# 
   218  010E                     	;# 
   219  010F                     	;# 
   220  0185                     	;# 
   221  0187                     	;# 
   222  0188                     	;# 
   223  0189                     	;# 
   224  018C                     	;# 
   225  018D                     	;# 
   226  0000                     	;# 
   227  0001                     	;# 
   228  0002                     	;# 
   229  0003                     	;# 
   230  0004                     	;# 
   231  0005                     	;# 
   232  0006                     	;# 
   233  0007                     	;# 
   234  0008                     	;# 
   235  0009                     	;# 
   236  000A                     	;# 
   237  000B                     	;# 
   238  000C                     	;# 
   239  000D                     	;# 
   240  000E                     	;# 
   241  000E                     	;# 
   242  000F                     	;# 
   243  0010                     	;# 
   244  0011                     	;# 
   245  0012                     	;# 
   246  0013                     	;# 
   247  0014                     	;# 
   248  0015                     	;# 
   249  0015                     	;# 
   250  0016                     	;# 
   251  0017                     	;# 
   252  0018                     	;# 
   253  0019                     	;# 
   254  001A                     	;# 
   255  001B                     	;# 
   256  001B                     	;# 
   257  001C                     	;# 
   258  001D                     	;# 
   259  001E                     	;# 
   260  001F                     	;# 
   261  0081                     	;# 
   262  0085                     	;# 
   263  0086                     	;# 
   264  0087                     	;# 
   265  0088                     	;# 
   266  0089                     	;# 
   267  008C                     	;# 
   268  008D                     	;# 
   269  008E                     	;# 
   270  008F                     	;# 
   271  0090                     	;# 
   272  0091                     	;# 
   273  0092                     	;# 
   274  0093                     	;# 
   275  0093                     	;# 
   276  0093                     	;# 
   277  0094                     	;# 
   278  0095                     	;# 
   279  0096                     	;# 
   280  0097                     	;# 
   281  0098                     	;# 
   282  0099                     	;# 
   283  009A                     	;# 
   284  009B                     	;# 
   285  009C                     	;# 
   286  009D                     	;# 
   287  009E                     	;# 
   288  009F                     	;# 
   289  0105                     	;# 
   290  0107                     	;# 
   291  0108                     	;# 
   292  0109                     	;# 
   293  010C                     	;# 
   294  010C                     	;# 
   295  010D                     	;# 
   296  010E                     	;# 
   297  010F                     	;# 
   298  0185                     	;# 
   299  0187                     	;# 
   300  0188                     	;# 
   301  0189                     	;# 
   302  018C                     	;# 
   303  018D                     	;# 
   304  0000                     	;# 
   305  0001                     	;# 
   306  0002                     	;# 
   307  0003                     	;# 
   308  0004                     	;# 
   309  0005                     	;# 
   310  0006                     	;# 
   311  0007                     	;# 
   312  0008                     	;# 
   313  0009                     	;# 
   314  000A                     	;# 
   315  000B                     	;# 
   316  000C                     	;# 
   317  000D                     	;# 
   318  000E                     	;# 
   319  000E                     	;# 
   320  000F                     	;# 
   321  0010                     	;# 
   322  0011                     	;# 
   323  0012                     	;# 
   324  0013                     	;# 
   325  0014                     	;# 
   326  0015                     	;# 
   327  0015                     	;# 
   328  0016                     	;# 
   329  0017                     	;# 
   330  0018                     	;# 
   331  0019                     	;# 
   332  001A                     	;# 
   333  001B                     	;# 
   334  001B                     	;# 
   335  001C                     	;# 
   336  001D                     	;# 
   337  001E                     	;# 
   338  001F                     	;# 
   339  0081                     	;# 
   340  0085                     	;# 
   341  0086                     	;# 
   342  0087                     	;# 
   343  0088                     	;# 
   344  0089                     	;# 
   345  008C                     	;# 
   346  008D                     	;# 
   347  008E                     	;# 
   348  008F                     	;# 
   349  0090                     	;# 
   350  0091                     	;# 
   351  0092                     	;# 
   352  0093                     	;# 
   353  0093                     	;# 
   354  0093                     	;# 
   355  0094                     	;# 
   356  0095                     	;# 
   357  0096                     	;# 
   358  0097                     	;# 
   359  0098                     	;# 
   360  0099                     	;# 
   361  009A                     	;# 
   362  009B                     	;# 
   363  009C                     	;# 
   364  009D                     	;# 
   365  009E                     	;# 
   366  009F                     	;# 
   367  0105                     	;# 
   368  0107                     	;# 
   369  0108                     	;# 
   370  0109                     	;# 
   371  010C                     	;# 
   372  010C                     	;# 
   373  010D                     	;# 
   374  010E                     	;# 
   375  010F                     	;# 
   376  0185                     	;# 
   377  0187                     	;# 
   378  0188                     	;# 
   379  0189                     	;# 
   380  018C                     	;# 
   381  018D                     	;# 
   382  000B                     _INTCONbits	set	11
   383  0009                     _PORTE	set	9
   384  0007                     _PORTC	set	7
   385  0006                     _PORTB	set	6
   386  0005                     _PORTA	set	5
   387  0008                     _PORTD	set	8
   388  0013                     _SSPBUF	set	19
   389  0014                     _SSPCON	set	20
   390  0049                     _RE1	set	73
   391  0048                     _RE0	set	72
   392  0063                     _SSPIF	set	99
   393  005E                     _PEIE	set	94
   394  005F                     _GIE	set	95
   395  0089                     _TRISE	set	137
   396  0088                     _TRISD	set	136
   397  0087                     _TRISC	set	135
   398  0086                     _TRISB	set	134
   399  0085                     _TRISA	set	133
   400  008F                     _OSCCONbits	set	143
   401  0091                     _SSPCON2bits	set	145
   402  0087                     _TRISCbits	set	135
   403  0094                     _SSPSTAT	set	148
   404  0093                     _SSPADD	set	147
   405  0091                     _SSPCON2	set	145
   406  0463                     _SSPIE	set	1123
   407  043C                     _TRISC4	set	1084
   408  043B                     _TRISC3	set	1083
   409  0188                     _ANSEL	set	392
   410  0189                     _ANSELH	set	393
   411                           
   412                           	psect	strings
   413  0800                     __pstrings:
   414  0800                     stringtab:
   415  0800                     __stringtab:
   416  0800                     stringcode:	
   417                           ;	String table - string pointers are 1 byte each
   418                           
   419  0800                     stringdir:
   420  0800  3008               	movlw	high stringdir
   421  0801  008A               	movwf	10
   422  0802  0804               	movf	4,w
   423  0803  0A84               	incf	4,f
   424  0804  0782               	addwf	2,f
   425  0805                     __stringbase:
   426  0805  3400               	retlw	0
   427  0806                     __end_of__stringtab:
   428  0806                     STR_1:
   429  0806  3420               	retlw	32	;' '
   430  0807  3453               	retlw	83	;'S'
   431  0808  3431               	retlw	49	;'1'
   432  0809  343A               	retlw	58	;':'
   433  080A  3420               	retlw	32	;' '
   434  080B  3420               	retlw	32	;' '
   435  080C  3420               	retlw	32	;' '
   436  080D  3453               	retlw	83	;'S'
   437  080E  3432               	retlw	50	;'2'
   438  080F  343A               	retlw	58	;':'
   439  0810  3420               	retlw	32	;' '
   440  0811  3420               	retlw	32	;' '
   441  0812  3420               	retlw	32	;' '
   442  0813  3453               	retlw	83	;'S'
   443  0814  3433               	retlw	51	;'3'
   444  0815  343A               	retlw	58	;':'
   445  0816  3400               	retlw	0
   446  0817                     STR_2:
   447  0817  3420               	retlw	32	;' '
   448  0818  3420               	retlw	32	;' '
   449  0819  3400               	retlw	0
   450  0817                     
   451                           	psect	cinit
   452  07F2                     start_initialization:	
   453                           ; #config settings
   454                           
   455  07F2                     __initialization:
   456                           
   457                           ; Clear objects allocated to BANK0
   458  07F2  1283               	bcf	3,5	;RP0=0, select bank0
   459  07F3  1303               	bcf	3,6	;RP1=0, select bank0
   460  07F4  01C7               	clrf	__pbssBANK0& (0+127)
   461  07F5  01C8               	clrf	(__pbssBANK0+1)& (0+127)
   462  07F6  01C9               	clrf	(__pbssBANK0+2)& (0+127)
   463  07F7  01CA               	clrf	(__pbssBANK0+3)& (0+127)
   464  07F8  01CB               	clrf	(__pbssBANK0+4)& (0+127)
   465  07F9  01CC               	clrf	(__pbssBANK0+5)& (0+127)
   466  07FA  01CD               	clrf	(__pbssBANK0+6)& (0+127)
   467  07FB  01CE               	clrf	(__pbssBANK0+7)& (0+127)
   468  07FC                     end_of_initialization:	
   469                           ;End of C runtime variable initialization code
   470                           
   471  07FC                     __end_of__initialization:
   472  07FC  0183               	clrf	3
   473  07FD  120A  118A  2BAD   	ljmp	_main	;jump to C main() function
   474                           
   475                           	psect	bssBANK0
   476  0047                     __pbssBANK0:
   477  0047                     _temp:
   478  0047                     	ds	2
   479  0049                     _var0:
   480  0049                     	ds	2
   481  004B                     _dec1:
   482  004B                     	ds	1
   483  004C                     _dec0:
   484  004C                     	ds	1
   485  004D                     _c:
   486  004D                     	ds	1
   487  004E                     _unit0:
   488  004E                     	ds	1
   489                           
   490                           	psect	cstackCOMMON
   491  0070                     __pcstackCOMMON:
   492  0070                     ?_initCONFIG:
   493  0070                     ?_I2C_Command:	
   494                           ; 1 bytes @ 0x0
   495                           
   496  0070                     ?_I2C_Master_Wait:	
   497                           ; 1 bytes @ 0x0
   498                           
   499  0070                     ??_I2C_Master_Wait:	
   500                           ; 1 bytes @ 0x0
   501                           
   502  0070                     ?_I2C_Master_Start:	
   503                           ; 1 bytes @ 0x0
   504                           
   505  0070                     ??_I2C_Master_Start:	
   506                           ; 1 bytes @ 0x0
   507                           
   508  0070                     ?_I2C_Master_Stop:	
   509                           ; 1 bytes @ 0x0
   510                           
   511  0070                     ??_I2C_Master_Stop:	
   512                           ; 1 bytes @ 0x0
   513                           
   514  0070                     ?_I2C_Master_Write:	
   515                           ; 1 bytes @ 0x0
   516                           
   517  0070                     ?_Lcd_Port:	
   518                           ; 1 bytes @ 0x0
   519                           
   520  0070                     ??_Lcd_Port:	
   521                           ; 1 bytes @ 0x0
   522                           
   523  0070                     ?_Lcd_Cmd:	
   524                           ; 1 bytes @ 0x0
   525                           
   526  0070                     ?_Lcd_Clear:	
   527                           ; 1 bytes @ 0x0
   528                           
   529  0070                     ?_Lcd_Init:	
   530                           ; 1 bytes @ 0x0
   531                           
   532  0070                     ?_Lcd_Write_Char:	
   533                           ; 1 bytes @ 0x0
   534                           
   535  0070                     ?_Lcd_Write_String:	
   536                           ; 1 bytes @ 0x0
   537                           
   538  0070                     ?_main:	
   539                           ; 1 bytes @ 0x0
   540                           
   541  0070                     ?__Umul8_16:	
   542                           ; 1 bytes @ 0x0
   543                           
   544  0070                     ?_I2C_Master_Read:	
   545                           ; 2 bytes @ 0x0
   546                           
   547  0070                     ?___wmul:	
   548                           ; 2 bytes @ 0x0
   549                           
   550  0070                     ?___lwdiv:	
   551                           ; 2 bytes @ 0x0
   552                           
   553  0070                     ?___lldiv:	
   554                           ; 2 bytes @ 0x0
   555                           
   556  0070                     ?___xxtofl:	
   557                           ; 4 bytes @ 0x0
   558                           
   559  0070                     Lcd_Port@a:	
   560                           ; 4 bytes @ 0x0
   561                           
   562  0070                     __Umul8_16@multiplicand:	
   563                           ; 1 bytes @ 0x0
   564                           
   565  0070                     I2C_Master_Write@d:	
   566                           ; 1 bytes @ 0x0
   567                           
   568  0070                     I2C_Master_Read@a:	
   569                           ; 2 bytes @ 0x0
   570                           
   571  0070                     ___wmul@multiplier:	
   572                           ; 2 bytes @ 0x0
   573                           
   574  0070                     ___lwdiv@divisor:	
   575                           ; 2 bytes @ 0x0
   576                           
   577  0070                     ___lldiv@divisor:	
   578                           ; 2 bytes @ 0x0
   579                           
   580  0070                     ___xxtofl@val:	
   581                           ; 4 bytes @ 0x0
   582                           
   583                           
   584                           ; 4 bytes @ 0x0
   585  0070                     	ds	1
   586  0071                     ??_Lcd_Cmd:
   587  0071                     ??_Lcd_Write_Char:	
   588                           ; 1 bytes @ 0x1
   589                           
   590                           
   591                           ; 1 bytes @ 0x1
   592  0071                     	ds	1
   593  0072                     ??__Umul8_16:
   594  0072                     ??_I2C_Master_Write:	
   595                           ; 1 bytes @ 0x2
   596                           
   597  0072                     ??_I2C_Master_Read:	
   598                           ; 1 bytes @ 0x2
   599                           
   600  0072                     Lcd_Write_Char@a:	
   601                           ; 1 bytes @ 0x2
   602                           
   603  0072                     ___wmul@multiplicand:	
   604                           ; 1 bytes @ 0x2
   605                           
   606  0072                     ___lwdiv@dividend:	
   607                           ; 2 bytes @ 0x2
   608                           
   609                           
   610                           ; 2 bytes @ 0x2
   611  0072                     	ds	1
   612  0073                     Lcd_Cmd@a:
   613  0073                     Lcd_Write_Char@temp:	
   614                           ; 1 bytes @ 0x3
   615                           
   616                           
   617                           ; 1 bytes @ 0x3
   618  0073                     	ds	1
   619  0074                     ??_Lcd_Clear:
   620  0074                     ?_Lcd_Set_Cursor:	
   621                           ; 1 bytes @ 0x4
   622                           
   623  0074                     ??_Lcd_Init:	
   624                           ; 1 bytes @ 0x4
   625                           
   626  0074                     ??___wmul:	
   627                           ; 1 bytes @ 0x4
   628                           
   629  0074                     ??___lwdiv:	
   630                           ; 1 bytes @ 0x4
   631                           
   632  0074                     ??___xxtofl:	
   633                           ; 1 bytes @ 0x4
   634                           
   635  0074                     Lcd_Set_Cursor@b:	
   636                           ; 1 bytes @ 0x4
   637                           
   638  0074                     Lcd_Write_Char@y:	
   639                           ; 1 bytes @ 0x4
   640                           
   641  0074                     I2C_Master_Read@temp:	
   642                           ; 1 bytes @ 0x4
   643                           
   644  0074                     ___wmul@product:	
   645                           ; 2 bytes @ 0x4
   646                           
   647  0074                     __Umul8_16@product:	
   648                           ; 2 bytes @ 0x4
   649                           
   650  0074                     ___lldiv@dividend:	
   651                           ; 2 bytes @ 0x4
   652                           
   653                           
   654                           ; 4 bytes @ 0x4
   655  0074                     	ds	1
   656  0075                     ??_Lcd_Set_Cursor:
   657  0075                     ??_Lcd_Write_String:	
   658                           ; 1 bytes @ 0x5
   659                           
   660  0075                     Lcd_Write_String@i:	
   661                           ; 1 bytes @ 0x5
   662                           
   663  0075                     ___lwdiv@quotient:	
   664                           ; 2 bytes @ 0x5
   665                           
   666                           
   667                           ; 2 bytes @ 0x5
   668  0075                     	ds	1
   669  0076                     ??_I2C_Command:
   670  0076                     __Umul8_16@word_mpld:	
   671                           ; 1 bytes @ 0x6
   672                           
   673                           
   674                           ; 2 bytes @ 0x6
   675  0076                     	ds	1
   676  0077                     Lcd_Set_Cursor@a:
   677  0077                     Lcd_Write_String@a:	
   678                           ; 1 bytes @ 0x7
   679                           
   680  0077                     ___lwdiv@counter:	
   681                           ; 1 bytes @ 0x7
   682                           
   683                           
   684                           ; 1 bytes @ 0x7
   685  0077                     	ds	1
   686  0078                     ?_char_2_dec:
   687  0078                     ??___lldiv:	
   688                           ; 1 bytes @ 0x8
   689                           
   690  0078                     Lcd_Set_Cursor@z:	
   691                           ; 1 bytes @ 0x8
   692                           
   693  0078                     __Umul8_16@multiplier:	
   694                           ; 1 bytes @ 0x8
   695                           
   696  0078                     ___xxtofl@sign:	
   697                           ; 1 bytes @ 0x8
   698                           
   699  0078                     char_2_dec@z:	
   700                           ; 1 bytes @ 0x8
   701                           
   702                           
   703                           ; 2 bytes @ 0x8
   704  0078                     	ds	1
   705  0079                     Lcd_Set_Cursor@y:
   706  0079                     ___xxtofl@exp:	
   707                           ; 1 bytes @ 0x9
   708                           
   709  0079                     ___lldiv@quotient:	
   710                           ; 1 bytes @ 0x9
   711                           
   712                           
   713                           ; 4 bytes @ 0x9
   714  0079                     	ds	1
   715  007A                     ??_char_2_dec:
   716  007A                     Lcd_Set_Cursor@temp:	
   717                           ; 1 bytes @ 0xA
   718                           
   719  007A                     ___xxtofl@arg:	
   720                           ; 1 bytes @ 0xA
   721                           
   722                           
   723                           ; 4 bytes @ 0xA
   724  007A                     	ds	2
   725  007C                     char_2_dec@zeta:
   726                           
   727                           ; 2 bytes @ 0xC
   728  007C                     	ds	1
   729  007D                     ___lldiv@counter:
   730                           
   731                           ; 1 bytes @ 0xD
   732  007D                     	ds	1
   733  007E                     ??_initCONFIG:
   734                           
   735                           	psect	cstackBANK0
   736  0020                     __pcstackBANK0:	
   737                           ; 1 bytes @ 0xE
   738                           
   739  0020                     ?_I2C_Master_Init:
   740  0020                     ?___flmul:	
   741                           ; 1 bytes @ 0x0
   742                           
   743  0020                     I2C_Master_Init@c:	
   744                           ; 4 bytes @ 0x0
   745                           
   746  0020                     ___flmul@b:	
   747                           ; 4 bytes @ 0x0
   748                           
   749                           
   750                           ; 4 bytes @ 0x0
   751  0020                     	ds	4
   752  0024                     ??_I2C_Master_Init:
   753  0024                     ___flmul@a:	
   754                           ; 1 bytes @ 0x4
   755                           
   756                           
   757                           ; 4 bytes @ 0x4
   758  0024                     	ds	4
   759  0028                     ??___flmul:
   760                           
   761                           ; 1 bytes @ 0x8
   762  0028                     	ds	5
   763  002D                     ___flmul@sign:
   764                           
   765                           ; 1 bytes @ 0xD
   766  002D                     	ds	1
   767  002E                     ___flmul@grs:
   768                           
   769                           ; 4 bytes @ 0xE
   770  002E                     	ds	4
   771  0032                     ___flmul@aexp:
   772                           
   773                           ; 1 bytes @ 0x12
   774  0032                     	ds	1
   775  0033                     ___flmul@bexp:
   776                           
   777                           ; 1 bytes @ 0x13
   778  0033                     	ds	1
   779  0034                     ___flmul@prod:
   780                           
   781                           ; 4 bytes @ 0x14
   782  0034                     	ds	4
   783  0038                     ___flmul@temp:
   784                           
   785                           ; 2 bytes @ 0x18
   786  0038                     	ds	2
   787  003A                     ?___fltol:
   788  003A                     ___fltol@f1:	
   789                           ; 4 bytes @ 0x1A
   790                           
   791                           
   792                           ; 4 bytes @ 0x1A
   793  003A                     	ds	4
   794  003E                     ??___fltol:
   795                           
   796                           ; 1 bytes @ 0x1E
   797  003E                     	ds	5
   798  0043                     ___fltol@sign1:
   799                           
   800                           ; 1 bytes @ 0x23
   801  0043                     	ds	1
   802  0044                     ___fltol@exp1:
   803                           
   804                           ; 1 bytes @ 0x24
   805  0044                     	ds	1
   806  0045                     ??_main:
   807                           
   808                           ; 1 bytes @ 0x25
   809  0045                     	ds	2
   810                           
   811                           	psect	maintext
   812  03AD                     __pmaintext:	
   813 ;;
   814 ;;Main: autosize = 0, tempsize = 2, incstack = 0, save=0
   815 ;;
   816 ;; *************** function _main *****************
   817 ;; Defined at:
   818 ;;		line 49 in file "LAB4_main.c"
   819 ;; Parameters:    Size  Location     Type
   820 ;;		None
   821 ;; Auto vars:     Size  Location     Type
   822 ;;		None
   823 ;; Return value:  Size  Location     Type
   824 ;;                  1    wreg      void 
   825 ;; Registers used:
   826 ;;		wreg, fsr0l, fsr0h, status,2, status,0, btemp+1, pclath, cstack
   827 ;; Tracked objects:
   828 ;;		On entry : B00/0
   829 ;;		On exit  : 0/0
   830 ;;		Unchanged: 0/0
   831 ;; Data sizes:     COMMON   BANK0   BANK1   BANK3   BANK2
   832 ;;      Params:         0       0       0       0       0
   833 ;;      Locals:         0       0       0       0       0
   834 ;;      Temps:          0       2       0       0       0
   835 ;;      Totals:         0       2       0       0       0
   836 ;;Total ram usage:        2 bytes
   837 ;; Hardware stack levels required when called: 3
   838 ;; This function calls:
   839 ;;		_I2C_Command
   840 ;;		_Lcd_Clear
   841 ;;		_Lcd_Init
   842 ;;		_Lcd_Set_Cursor
   843 ;;		_Lcd_Write_Char
   844 ;;		_Lcd_Write_String
   845 ;;		___flmul
   846 ;;		___fltol
   847 ;;		___xxtofl
   848 ;;		_char_2_dec
   849 ;;		_initCONFIG
   850 ;; This function is called by:
   851 ;;		Startup code after reset
   852 ;; This function uses a non-reentrant model
   853 ;;
   854                           
   855                           
   856                           ;psect for function _main
   857  03AD                     _main:
   858  03AD                     l1763:	
   859                           ;incstack = 0
   860                           ; Regs used in _main: [wreg-fsr0h+status,2+status,0+btemp+1+pclath+cstack]
   861                           
   862                           
   863                           ;LAB4_main.c: 50:     initCONFIG();
   864  03AD  120A  118A  2008  120A  118A  	fcall	_initCONFIG
   865                           
   866                           ;LAB4_main.c: 51:     Lcd_Init();
   867  03B2  120A  118A  2030  120A  118A  	fcall	_Lcd_Init
   868                           
   869                           ;LAB4_main.c: 52:     Lcd_Clear();
   870  03B7  120A  158A  26A1  120A  118A  	fcall	_Lcd_Clear
   871                           
   872                           ;LAB4_main.c: 53:     Lcd_Set_Cursor(1,1);
   873  03BC  01F4               	clrf	Lcd_Set_Cursor@b
   874  03BD  0AF4               	incf	Lcd_Set_Cursor@b,f
   875  03BE  3001               	movlw	1
   876  03BF  120A  118A  2077  120A  118A  	fcall	_Lcd_Set_Cursor
   877  03C4                     l1765:
   878                           
   879                           ;LAB4_main.c: 54:     Lcd_Write_String(" S1:   S2:   S3:");
   880  03C4  3001               	movlw	(low ((STR_1-__stringbase)| (0+32768)))& (0+255)
   881  03C5  120A  158A  26E5  120A  118A  	fcall	_Lcd_Write_String
   882  03CA                     l1767:
   883                           
   884                           ;LAB4_main.c: 56:         I2C_Command();
   885  03CA  120A  118A  22D5  120A  118A  	fcall	_I2C_Command
   886  03CF                     l1769:
   887                           
   888                           ;LAB4_main.c: 57:         var0= var0*1.961;
   889  03CF  1283               	bcf	3,5	;RP0=0, select bank0
   890  03D0  1303               	bcf	3,6	;RP1=0, select bank0
   891  03D1  0849               	movf	_var0,w
   892  03D2  00F0               	movwf	___xxtofl@val
   893  03D3  084A               	movf	_var0+1,w
   894  03D4  00F1               	movwf	___xxtofl@val+1
   895  03D5  01F2               	clrf	___xxtofl@val+2
   896  03D6  01F3               	clrf	___xxtofl@val+3
   897  03D7  3000               	movlw	0
   898  03D8  120A  118A  221B  120A  118A  	fcall	___xxtofl
   899  03DD  0873               	movf	?___xxtofl+3,w
   900  03DE  1283               	bcf	3,5	;RP0=0, select bank0
   901  03DF  1303               	bcf	3,6	;RP1=0, select bank0
   902  03E0  00A7               	movwf	___flmul@a+3
   903  03E1  0872               	movf	?___xxtofl+2,w
   904  03E2  00A6               	movwf	___flmul@a+2
   905  03E3  0871               	movf	?___xxtofl+1,w
   906  03E4  00A5               	movwf	___flmul@a+1
   907  03E5  0870               	movf	?___xxtofl,w
   908  03E6  00A4               	movwf	___flmul@a
   909  03E7  303F               	movlw	63
   910  03E8  00A3               	movwf	___flmul@b+3
   911  03E9  30FB               	movlw	251
   912  03EA  00A2               	movwf	___flmul@b+2
   913  03EB  3002               	movlw	2
   914  03EC  00A1               	movwf	___flmul@b+1
   915  03ED  300C               	movlw	12
   916  03EE  00A0               	movwf	___flmul@b
   917  03EF  120A  118A  2491  120A  118A  	fcall	___flmul
   918  03F4  1283               	bcf	3,5	;RP0=0, select bank0
   919  03F5  1303               	bcf	3,6	;RP1=0, select bank0
   920  03F6  0823               	movf	?___flmul+3,w
   921  03F7  00BD               	movwf	___fltol@f1+3
   922  03F8  0822               	movf	?___flmul+2,w
   923  03F9  00BC               	movwf	___fltol@f1+2
   924  03FA  0821               	movf	?___flmul+1,w
   925  03FB  00BB               	movwf	___fltol@f1+1
   926  03FC  0820               	movf	?___flmul,w
   927  03FD  00BA               	movwf	___fltol@f1
   928  03FE  120A  118A  219F  120A  118A  	fcall	___fltol
   929  0403  1283               	bcf	3,5	;RP0=0, select bank0
   930  0404  1303               	bcf	3,6	;RP1=0, select bank0
   931  0405  083B               	movf	?___fltol+1,w
   932  0406  00CA               	movwf	_var0+1
   933  0407  083A               	movf	?___fltol,w
   934  0408  00C9               	movwf	_var0
   935  0409                     l1771:
   936                           
   937                           ;LAB4_main.c: 58:         char_2_dec(var0);
   938  0409  084A               	movf	_var0+1,w
   939  040A  00F9               	movwf	char_2_dec@z+1
   940  040B  0849               	movf	_var0,w
   941  040C  00F8               	movwf	char_2_dec@z
   942  040D  120A  118A  212F  120A  118A  	fcall	_char_2_dec
   943  0412                     l1773:
   944                           
   945                           ;LAB4_main.c: 59:         Lcd_Set_Cursor(2,1);
   946  0412  01F4               	clrf	Lcd_Set_Cursor@b
   947  0413  0AF4               	incf	Lcd_Set_Cursor@b,f
   948  0414  3002               	movlw	2
   949  0415  120A  118A  2077  120A  118A  	fcall	_Lcd_Set_Cursor
   950  041A                     l1775:
   951                           
   952                           ;LAB4_main.c: 60:         Lcd_Write_Char(unit0);
   953  041A  1283               	bcf	3,5	;RP0=0, select bank0
   954  041B  1303               	bcf	3,6	;RP1=0, select bank0
   955  041C  084E               	movf	_unit0,w
   956  041D  120A  158A  26C8  120A  118A  	fcall	_Lcd_Write_Char
   957  0422                     l1777:
   958                           
   959                           ;LAB4_main.c: 61:         Lcd_Write_Char(46);
   960  0422  302E               	movlw	46
   961  0423  120A  158A  26C8  120A  118A  	fcall	_Lcd_Write_Char
   962  0428                     l1779:
   963                           
   964                           ;LAB4_main.c: 62:         Lcd_Write_Char(dec0);
   965  0428  1283               	bcf	3,5	;RP0=0, select bank0
   966  0429  1303               	bcf	3,6	;RP1=0, select bank0
   967  042A  084C               	movf	_dec0,w
   968  042B  120A  158A  26C8  120A  118A  	fcall	_Lcd_Write_Char
   969  0430                     l1781:
   970                           
   971                           ;LAB4_main.c: 63:         Lcd_Write_Char(dec1);
   972  0430  1283               	bcf	3,5	;RP0=0, select bank0
   973  0431  1303               	bcf	3,6	;RP1=0, select bank0
   974  0432  084B               	movf	_dec1,w
   975  0433  120A  158A  26C8  120A  118A  	fcall	_Lcd_Write_Char
   976  0438                     l1783:
   977                           
   978                           ;LAB4_main.c: 64:         Lcd_Write_String("  ");
   979  0438  3012               	movlw	(low ((STR_2-__stringbase)| (0+32768)))& (0+255)
   980  0439  120A  158A  26E5  120A  118A  	fcall	_Lcd_Write_String
   981  043E                     l1785:
   982                           
   983                           ;LAB4_main.c: 65:         char_2_dec(c);
   984  043E  1283               	bcf	3,5	;RP0=0, select bank0
   985  043F  1303               	bcf	3,6	;RP1=0, select bank0
   986  0440  084D               	movf	_c,w
   987  0441  00C5               	movwf	??_main
   988  0442  01C6               	clrf	??_main+1
   989  0443  0845               	movf	??_main,w
   990  0444  00F8               	movwf	char_2_dec@z
   991  0445  0846               	movf	??_main+1,w
   992  0446  00F9               	movwf	char_2_dec@z+1
   993  0447  120A  118A  212F  120A  118A  	fcall	_char_2_dec
   994  044C                     l1787:
   995                           
   996                           ;LAB4_main.c: 66:         Lcd_Write_Char(unit0);
   997  044C  1283               	bcf	3,5	;RP0=0, select bank0
   998  044D  1303               	bcf	3,6	;RP1=0, select bank0
   999  044E  084E               	movf	_unit0,w
  1000  044F  120A  158A  26C8  120A  118A  	fcall	_Lcd_Write_Char
  1001  0454                     l1789:
  1002                           
  1003                           ;LAB4_main.c: 67:         Lcd_Write_Char(dec0);
  1004  0454  1283               	bcf	3,5	;RP0=0, select bank0
  1005  0455  1303               	bcf	3,6	;RP1=0, select bank0
  1006  0456  084C               	movf	_dec0,w
  1007  0457  120A  158A  26C8  120A  118A  	fcall	_Lcd_Write_Char
  1008  045C                     l1791:
  1009                           
  1010                           ;LAB4_main.c: 68:         Lcd_Write_Char(dec1);
  1011  045C  1283               	bcf	3,5	;RP0=0, select bank0
  1012  045D  1303               	bcf	3,6	;RP1=0, select bank0
  1013  045E  084B               	movf	_dec1,w
  1014  045F  120A  158A  26C8  120A  118A  	fcall	_Lcd_Write_Char
  1015  0464                     l1793:
  1016                           
  1017                           ;LAB4_main.c: 69:         Lcd_Write_String("  ");
  1018  0464  3012               	movlw	(low ((STR_2-__stringbase)| (0+32768)))& (0+255)
  1019  0465  120A  158A  26E5  120A  118A  	fcall	_Lcd_Write_String
  1020  046A                     l1795:
  1021                           
  1022                           ;LAB4_main.c: 70:         char_2_dec(temp);
  1023  046A  1283               	bcf	3,5	;RP0=0, select bank0
  1024  046B  1303               	bcf	3,6	;RP1=0, select bank0
  1025  046C  0848               	movf	_temp+1,w
  1026  046D  00F9               	movwf	char_2_dec@z+1
  1027  046E  0847               	movf	_temp,w
  1028  046F  00F8               	movwf	char_2_dec@z
  1029  0470  120A  118A  212F  120A  118A  	fcall	_char_2_dec
  1030  0475                     l1797:
  1031                           
  1032                           ;LAB4_main.c: 71:         Lcd_Write_Char(unit0);
  1033  0475  1283               	bcf	3,5	;RP0=0, select bank0
  1034  0476  1303               	bcf	3,6	;RP1=0, select bank0
  1035  0477  084E               	movf	_unit0,w
  1036  0478  120A  158A  26C8  120A  118A  	fcall	_Lcd_Write_Char
  1037  047D                     l1799:
  1038                           
  1039                           ;LAB4_main.c: 72:         Lcd_Write_Char(dec0);
  1040  047D  1283               	bcf	3,5	;RP0=0, select bank0
  1041  047E  1303               	bcf	3,6	;RP1=0, select bank0
  1042  047F  084C               	movf	_dec0,w
  1043  0480  120A  158A  26C8  120A  118A  	fcall	_Lcd_Write_Char
  1044  0485                     l1801:
  1045                           
  1046                           ;LAB4_main.c: 73:         Lcd_Write_Char(dec1);
  1047  0485  1283               	bcf	3,5	;RP0=0, select bank0
  1048  0486  1303               	bcf	3,6	;RP1=0, select bank0
  1049  0487  084B               	movf	_dec1,w
  1050  0488  120A  158A  26C8  120A  118A  	fcall	_Lcd_Write_Char
  1051  048D  2BCA               	goto	l1767
  1052  048E  120A  118A  2800   	ljmp	start
  1053  0491                     __end_of_main:
  1054                           
  1055                           	psect	text1
  1056  0008                     __ptext1:	
  1057 ;; *************** function _initCONFIG *****************
  1058 ;; Defined at:
  1059 ;;		line 116 in file "LAB4_main.c"
  1060 ;; Parameters:    Size  Location     Type
  1061 ;;		None
  1062 ;; Auto vars:     Size  Location     Type
  1063 ;;		None
  1064 ;; Return value:  Size  Location     Type
  1065 ;;                  1    wreg      void 
  1066 ;; Registers used:
  1067 ;;		wreg, status,2, status,0, pclath, cstack
  1068 ;; Tracked objects:
  1069 ;;		On entry : 0/0
  1070 ;;		On exit  : 0/0
  1071 ;;		Unchanged: 0/0
  1072 ;; Data sizes:     COMMON   BANK0   BANK1   BANK3   BANK2
  1073 ;;      Params:         0       0       0       0       0
  1074 ;;      Locals:         0       0       0       0       0
  1075 ;;      Temps:          0       0       0       0       0
  1076 ;;      Totals:         0       0       0       0       0
  1077 ;;Total ram usage:        0 bytes
  1078 ;; Hardware stack levels used: 1
  1079 ;; Hardware stack levels required when called: 2
  1080 ;; This function calls:
  1081 ;;		_I2C_Master_Init
  1082 ;; This function is called by:
  1083 ;;		_main
  1084 ;; This function uses a non-reentrant model
  1085 ;;
  1086                           
  1087                           
  1088                           ;psect for function _initCONFIG
  1089  0008                     _initCONFIG:
  1090  0008                     l1481:	
  1091                           ;incstack = 0
  1092                           ; Regs used in _initCONFIG: [wreg+status,2+status,0+pclath+cstack]
  1093                           
  1094                           
  1095                           ;LAB4_main.c: 117:     OSCCONbits.IRCF2 = 1;
  1096  0008  1683               	bsf	3,5	;RP0=1, select bank1
  1097  0009  1303               	bcf	3,6	;RP1=0, select bank1
  1098  000A  170F               	bsf	15,6	;volatile
  1099                           
  1100                           ;LAB4_main.c: 118:     OSCCONbits.IRCF1 = 1;
  1101  000B  168F               	bsf	15,5	;volatile
  1102                           
  1103                           ;LAB4_main.c: 119:     OSCCONbits.IRCF0 = 1;
  1104  000C  160F               	bsf	15,4	;volatile
  1105                           
  1106                           ;LAB4_main.c: 120:     OSCCONbits.SCS = 1;
  1107  000D  140F               	bsf	15,0	;volatile
  1108  000E                     l1483:
  1109                           
  1110                           ;LAB4_main.c: 121:     ANSELH = 0;
  1111  000E  1683               	bsf	3,5	;RP0=1, select bank3
  1112  000F  1703               	bsf	3,6	;RP1=1, select bank3
  1113  0010  0189               	clrf	9	;volatile
  1114                           
  1115                           ;LAB4_main.c: 122:     ANSEL = 0;
  1116  0011  0188               	clrf	8	;volatile
  1117                           
  1118                           ;LAB4_main.c: 123:     TRISA = 0;
  1119  0012  1683               	bsf	3,5	;RP0=1, select bank1
  1120  0013  1303               	bcf	3,6	;RP1=0, select bank1
  1121  0014  0185               	clrf	5	;volatile
  1122                           
  1123                           ;LAB4_main.c: 124:     TRISB = 0;
  1124  0015  0186               	clrf	6	;volatile
  1125                           
  1126                           ;LAB4_main.c: 125:     TRISC = 0;
  1127  0016  0187               	clrf	7	;volatile
  1128                           
  1129                           ;LAB4_main.c: 126:     TRISD = 0;
  1130  0017  0188               	clrf	8	;volatile
  1131                           
  1132                           ;LAB4_main.c: 127:     TRISE = 0;
  1133  0018  0189               	clrf	9	;volatile
  1134                           
  1135                           ;LAB4_main.c: 128:     PORTA = 0;
  1136  0019  1283               	bcf	3,5	;RP0=0, select bank0
  1137  001A  1303               	bcf	3,6	;RP1=0, select bank0
  1138  001B  0185               	clrf	5	;volatile
  1139                           
  1140                           ;LAB4_main.c: 129:     PORTB = 0;
  1141  001C  0186               	clrf	6	;volatile
  1142                           
  1143                           ;LAB4_main.c: 130:     PORTC = 0;
  1144  001D  0187               	clrf	7	;volatile
  1145                           
  1146                           ;LAB4_main.c: 131:     PORTD = 0;
  1147  001E  0188               	clrf	8	;volatile
  1148                           
  1149                           ;LAB4_main.c: 132:     PORTE = 0;
  1150  001F  0189               	clrf	9	;volatile
  1151  0020                     l1485:
  1152                           
  1153                           ;LAB4_main.c: 133:     INTCONbits.GIE = 0;
  1154  0020  138B               	bcf	11,7	;volatile
  1155  0021                     l1487:
  1156                           
  1157                           ;LAB4_main.c: 134:     INTCONbits.PEIE = 0;
  1158  0021  130B               	bcf	11,6	;volatile
  1159  0022                     l1489:
  1160                           
  1161                           ;LAB4_main.c: 135:     I2C_Master_Init(100000);
  1162  0022  3000               	movlw	0
  1163  0023  00A3               	movwf	I2C_Master_Init@c+3
  1164  0024  3001               	movlw	1
  1165  0025  00A2               	movwf	I2C_Master_Init@c+2
  1166  0026  3086               	movlw	134
  1167  0027  00A1               	movwf	I2C_Master_Init@c+1
  1168  0028  30A0               	movlw	160
  1169  0029  00A0               	movwf	I2C_Master_Init@c
  1170  002A  120A  158A  2784  120A  118A  	fcall	_I2C_Master_Init
  1171  002F                     l181:
  1172  002F  0008               	return
  1173  0030                     __end_of_initCONFIG:
  1174                           
  1175                           	psect	text2
  1176  0F84                     __ptext2:	
  1177 ;; *************** function _I2C_Master_Init *****************
  1178 ;; Defined at:
  1179 ;;		line 16 in file "I2C.c"
  1180 ;; Parameters:    Size  Location     Type
  1181 ;;  c               4    0[BANK0 ] const unsigned long 
  1182 ;; Auto vars:     Size  Location     Type
  1183 ;;		None
  1184 ;; Return value:  Size  Location     Type
  1185 ;;                  1    wreg      void 
  1186 ;; Registers used:
  1187 ;;		wreg, status,2, status,0, pclath, cstack
  1188 ;; Tracked objects:
  1189 ;;		On entry : 0/0
  1190 ;;		On exit  : 0/0
  1191 ;;		Unchanged: 0/0
  1192 ;; Data sizes:     COMMON   BANK0   BANK1   BANK3   BANK2
  1193 ;;      Params:         0       4       0       0       0
  1194 ;;      Locals:         0       0       0       0       0
  1195 ;;      Temps:          0       4       0       0       0
  1196 ;;      Totals:         0       8       0       0       0
  1197 ;;Total ram usage:        8 bytes
  1198 ;; Hardware stack levels used: 1
  1199 ;; Hardware stack levels required when called: 1
  1200 ;; This function calls:
  1201 ;;		___lldiv
  1202 ;; This function is called by:
  1203 ;;		_initCONFIG
  1204 ;; This function uses a non-reentrant model
  1205 ;;
  1206                           
  1207                           
  1208                           ;psect for function _I2C_Master_Init
  1209  0F84                     _I2C_Master_Init:
  1210  0F84                     l1325:	
  1211                           ;incstack = 0
  1212                           ; Regs used in _I2C_Master_Init: [wreg+status,2+status,0+pclath+cstack]
  1213                           
  1214                           
  1215                           ;I2C.c: 16: void I2C_Master_Init(const unsigned long c);I2C.c: 17: {;I2C.c: 18:     SSPC
      +                          ON = 0b00101000;
  1216  0F84  3028               	movlw	40
  1217  0F85  1283               	bcf	3,5	;RP0=0, select bank0
  1218  0F86  1303               	bcf	3,6	;RP1=0, select bank0
  1219  0F87  0094               	movwf	20	;volatile
  1220  0F88                     l1327:
  1221                           
  1222                           ;I2C.c: 19:     SSPCON2 = 0;
  1223  0F88  1683               	bsf	3,5	;RP0=1, select bank1
  1224  0F89  1303               	bcf	3,6	;RP1=0, select bank1
  1225  0F8A  0191               	clrf	17	;volatile
  1226  0F8B                     l1329:
  1227                           
  1228                           ;I2C.c: 20:     SSPADD = (8000000/(4*c))-1;
  1229  0F8B  1283               	bcf	3,5	;RP0=0, select bank0
  1230  0F8C  1303               	bcf	3,6	;RP1=0, select bank0
  1231  0F8D  0820               	movf	I2C_Master_Init@c,w
  1232  0F8E  00A4               	movwf	??_I2C_Master_Init
  1233  0F8F  0821               	movf	I2C_Master_Init@c+1,w
  1234  0F90  00A5               	movwf	??_I2C_Master_Init+1
  1235  0F91  0822               	movf	I2C_Master_Init@c+2,w
  1236  0F92  00A6               	movwf	??_I2C_Master_Init+2
  1237  0F93  0823               	movf	I2C_Master_Init@c+3,w
  1238  0F94  00A7               	movwf	??_I2C_Master_Init+3
  1239  0F95  3002               	movlw	2
  1240  0F96                     u1015:
  1241  0F96  1003               	clrc
  1242  0F97  0DA4               	rlf	??_I2C_Master_Init,f
  1243  0F98  0DA5               	rlf	??_I2C_Master_Init+1,f
  1244  0F99  0DA6               	rlf	??_I2C_Master_Init+2,f
  1245  0F9A  0DA7               	rlf	??_I2C_Master_Init+3,f
  1246  0F9B                     u1010:
  1247  0F9B  3EFF               	addlw	-1
  1248  0F9C  1D03               	skipz
  1249  0F9D  2F96               	goto	u1015
  1250  0F9E  0827               	movf	??_I2C_Master_Init+3,w
  1251  0F9F  00F3               	movwf	___lldiv@divisor+3
  1252  0FA0  0826               	movf	??_I2C_Master_Init+2,w
  1253  0FA1  00F2               	movwf	___lldiv@divisor+2
  1254  0FA2  0825               	movf	??_I2C_Master_Init+1,w
  1255  0FA3  00F1               	movwf	___lldiv@divisor+1
  1256  0FA4  0824               	movf	??_I2C_Master_Init,w
  1257  0FA5  00F0               	movwf	___lldiv@divisor
  1258  0FA6  3000               	movlw	0
  1259  0FA7  00F7               	movwf	___lldiv@dividend+3
  1260  0FA8  307A               	movlw	122
  1261  0FA9  00F6               	movwf	___lldiv@dividend+2
  1262  0FAA  3012               	movlw	18
  1263  0FAB  00F5               	movwf	___lldiv@dividend+1
  1264  0FAC  3000               	movlw	0
  1265  0FAD  00F4               	movwf	___lldiv@dividend
  1266  0FAE  120A  118A  20C9  120A  158A  	fcall	___lldiv
  1267  0FB3  0870               	movf	?___lldiv,w
  1268  0FB4  3EFF               	addlw	255
  1269  0FB5  1683               	bsf	3,5	;RP0=1, select bank1
  1270  0FB6  1303               	bcf	3,6	;RP1=0, select bank1
  1271  0FB7  0093               	movwf	19	;volatile
  1272  0FB8                     l1331:
  1273                           
  1274                           ;I2C.c: 21:     SSPSTAT = 0;
  1275  0FB8  0194               	clrf	20	;volatile
  1276  0FB9                     l1333:
  1277                           
  1278                           ;I2C.c: 22:     TRISCbits.TRISC3 = 1;
  1279  0FB9  1587               	bsf	7,3	;volatile
  1280  0FBA                     l1335:
  1281                           
  1282                           ;I2C.c: 23:     TRISCbits.TRISC4 = 1;
  1283  0FBA  1607               	bsf	7,4	;volatile
  1284  0FBB                     l29:
  1285  0FBB  0008               	return
  1286  0FBC                     __end_of_I2C_Master_Init:
  1287                           
  1288                           	psect	text3
  1289  00C9                     __ptext3:	
  1290 ;; *************** function ___lldiv *****************
  1291 ;; Defined at:
  1292 ;;		line 5 in file "C:\Program Files\Microchip\xc8\v2.32\pic\sources\c90\common\__lldiv.c"
  1293 ;; Parameters:    Size  Location     Type
  1294 ;;  divisor         4    0[COMMON] unsigned long 
  1295 ;;  dividend        4    4[COMMON] unsigned long 
  1296 ;; Auto vars:     Size  Location     Type
  1297 ;;  quotient        4    9[COMMON] unsigned long 
  1298 ;;  counter         1   13[COMMON] unsigned char 
  1299 ;; Return value:  Size  Location     Type
  1300 ;;                  4    0[COMMON] unsigned long 
  1301 ;; Registers used:
  1302 ;;		wreg, status,2, status,0
  1303 ;; Tracked objects:
  1304 ;;		On entry : 0/0
  1305 ;;		On exit  : 0/0
  1306 ;;		Unchanged: 0/0
  1307 ;; Data sizes:     COMMON   BANK0   BANK1   BANK3   BANK2
  1308 ;;      Params:         8       0       0       0       0
  1309 ;;      Locals:         5       0       0       0       0
  1310 ;;      Temps:          1       0       0       0       0
  1311 ;;      Totals:        14       0       0       0       0
  1312 ;;Total ram usage:       14 bytes
  1313 ;; Hardware stack levels used: 1
  1314 ;; This function calls:
  1315 ;;		Nothing
  1316 ;; This function is called by:
  1317 ;;		_I2C_Master_Init
  1318 ;; This function uses a non-reentrant model
  1319 ;;
  1320                           
  1321                           
  1322                           ;psect for function ___lldiv
  1323  00C9                     ___lldiv:
  1324  00C9                     l1301:	
  1325                           ;incstack = 0
  1326                           ; Regs used in ___lldiv: [wreg+status,2+status,0]
  1327                           
  1328  00C9  3000               	movlw	0
  1329  00CA  00FC               	movwf	___lldiv@quotient+3
  1330  00CB  3000               	movlw	0
  1331  00CC  00FB               	movwf	___lldiv@quotient+2
  1332  00CD  3000               	movlw	0
  1333  00CE  00FA               	movwf	___lldiv@quotient+1
  1334  00CF  3000               	movlw	0
  1335  00D0  00F9               	movwf	___lldiv@quotient
  1336  00D1  0873               	movf	___lldiv@divisor+3,w
  1337  00D2  0472               	iorwf	___lldiv@divisor+2,w
  1338  00D3  0471               	iorwf	___lldiv@divisor+1,w
  1339  00D4  0470               	iorwf	___lldiv@divisor,w
  1340  00D5  1903               	skipnz
  1341  00D6  28D8               	goto	u941
  1342  00D7  28D9               	goto	u940
  1343  00D8                     u941:
  1344  00D8  2926               	goto	l1321
  1345  00D9                     u940:
  1346  00D9                     l1303:
  1347  00D9  01FD               	clrf	___lldiv@counter
  1348  00DA  0AFD               	incf	___lldiv@counter,f
  1349  00DB  28E9               	goto	l1307
  1350  00DC                     l1305:
  1351  00DC  3001               	movlw	1
  1352  00DD  00F8               	movwf	??___lldiv
  1353  00DE                     u955:
  1354  00DE  1003               	clrc
  1355  00DF  0DF0               	rlf	___lldiv@divisor,f
  1356  00E0  0DF1               	rlf	___lldiv@divisor+1,f
  1357  00E1  0DF2               	rlf	___lldiv@divisor+2,f
  1358  00E2  0DF3               	rlf	___lldiv@divisor+3,f
  1359  00E3  0BF8               	decfsz	??___lldiv,f
  1360  00E4  28DE               	goto	u955
  1361  00E5  3001               	movlw	1
  1362  00E6  00F8               	movwf	??___lldiv
  1363  00E7  0878               	movf	??___lldiv,w
  1364  00E8  07FD               	addwf	___lldiv@counter,f
  1365  00E9                     l1307:
  1366  00E9  1FF3               	btfss	___lldiv@divisor+3,7
  1367  00EA  28EC               	goto	u961
  1368  00EB  28ED               	goto	u960
  1369  00EC                     u961:
  1370  00EC  28DC               	goto	l1305
  1371  00ED                     u960:
  1372  00ED                     l1309:
  1373  00ED  3001               	movlw	1
  1374  00EE  00F8               	movwf	??___lldiv
  1375  00EF                     u975:
  1376  00EF  1003               	clrc
  1377  00F0  0DF9               	rlf	___lldiv@quotient,f
  1378  00F1  0DFA               	rlf	___lldiv@quotient+1,f
  1379  00F2  0DFB               	rlf	___lldiv@quotient+2,f
  1380  00F3  0DFC               	rlf	___lldiv@quotient+3,f
  1381  00F4  0BF8               	decfsz	??___lldiv,f
  1382  00F5  28EF               	goto	u975
  1383  00F6                     l1311:
  1384  00F6  0873               	movf	___lldiv@divisor+3,w
  1385  00F7  0277               	subwf	___lldiv@dividend+3,w
  1386  00F8  1D03               	skipz
  1387  00F9  2904               	goto	u985
  1388  00FA  0872               	movf	___lldiv@divisor+2,w
  1389  00FB  0276               	subwf	___lldiv@dividend+2,w
  1390  00FC  1D03               	skipz
  1391  00FD  2904               	goto	u985
  1392  00FE  0871               	movf	___lldiv@divisor+1,w
  1393  00FF  0275               	subwf	___lldiv@dividend+1,w
  1394  0100  1D03               	skipz
  1395  0101  2904               	goto	u985
  1396  0102  0870               	movf	___lldiv@divisor,w
  1397  0103  0274               	subwf	___lldiv@dividend,w
  1398  0104                     u985:
  1399  0104  1C03               	skipc
  1400  0105  2907               	goto	u981
  1401  0106  2908               	goto	u980
  1402  0107                     u981:
  1403  0107  2917               	goto	l1317
  1404  0108                     u980:
  1405  0108                     l1313:
  1406  0108  0870               	movf	___lldiv@divisor,w
  1407  0109  02F4               	subwf	___lldiv@dividend,f
  1408  010A  0871               	movf	___lldiv@divisor+1,w
  1409  010B  1C03               	skipc
  1410  010C  0F71               	incfsz	___lldiv@divisor+1,w
  1411  010D  02F5               	subwf	___lldiv@dividend+1,f
  1412  010E  0872               	movf	___lldiv@divisor+2,w
  1413  010F  1C03               	skipc
  1414  0110  0F72               	incfsz	___lldiv@divisor+2,w
  1415  0111  02F6               	subwf	___lldiv@dividend+2,f
  1416  0112  0873               	movf	___lldiv@divisor+3,w
  1417  0113  1C03               	skipc
  1418  0114  0F73               	incfsz	___lldiv@divisor+3,w
  1419  0115  02F7               	subwf	___lldiv@dividend+3,f
  1420  0116                     l1315:
  1421  0116  1479               	bsf	___lldiv@quotient,0
  1422  0117                     l1317:
  1423  0117  3001               	movlw	1
  1424  0118                     u995:
  1425  0118  1003               	clrc
  1426  0119  0CF3               	rrf	___lldiv@divisor+3,f
  1427  011A  0CF2               	rrf	___lldiv@divisor+2,f
  1428  011B  0CF1               	rrf	___lldiv@divisor+1,f
  1429  011C  0CF0               	rrf	___lldiv@divisor,f
  1430  011D  3EFF               	addlw	-1
  1431  011E  1D03               	skipz
  1432  011F  2918               	goto	u995
  1433  0120                     l1319:
  1434  0120  3001               	movlw	1
  1435  0121  02FD               	subwf	___lldiv@counter,f
  1436  0122  1D03               	btfss	3,2
  1437  0123  2925               	goto	u1001
  1438  0124  2926               	goto	u1000
  1439  0125                     u1001:
  1440  0125  28ED               	goto	l1309
  1441  0126                     u1000:
  1442  0126                     l1321:
  1443  0126  087C               	movf	___lldiv@quotient+3,w
  1444  0127  00F3               	movwf	?___lldiv+3
  1445  0128  087B               	movf	___lldiv@quotient+2,w
  1446  0129  00F2               	movwf	?___lldiv+2
  1447  012A  087A               	movf	___lldiv@quotient+1,w
  1448  012B  00F1               	movwf	?___lldiv+1
  1449  012C  0879               	movf	___lldiv@quotient,w
  1450  012D  00F0               	movwf	?___lldiv
  1451  012E                     l303:
  1452  012E  0008               	return
  1453  012F                     __end_of___lldiv:
  1454                           
  1455                           	psect	text4
  1456  012F                     __ptext4:	
  1457 ;; *************** function _char_2_dec *****************
  1458 ;; Defined at:
  1459 ;;		line 104 in file "LAB4_main.c"
  1460 ;; Parameters:    Size  Location     Type
  1461 ;;  z               2    8[COMMON] unsigned int 
  1462 ;; Auto vars:     Size  Location     Type
  1463 ;;  zeta            2   12[COMMON] unsigned int 
  1464 ;; Return value:  Size  Location     Type
  1465 ;;                  1    wreg      void 
  1466 ;; Registers used:
  1467 ;;		wreg, status,2, status,0, pclath, cstack
  1468 ;; Tracked objects:
  1469 ;;		On entry : 0/0
  1470 ;;		On exit  : 0/0
  1471 ;;		Unchanged: 0/0
  1472 ;; Data sizes:     COMMON   BANK0   BANK1   BANK3   BANK2
  1473 ;;      Params:         2       0       0       0       0
  1474 ;;      Locals:         2       0       0       0       0
  1475 ;;      Temps:          2       0       0       0       0
  1476 ;;      Totals:         6       0       0       0       0
  1477 ;;Total ram usage:        6 bytes
  1478 ;; Hardware stack levels used: 1
  1479 ;; Hardware stack levels required when called: 1
  1480 ;; This function calls:
  1481 ;;		___lwdiv
  1482 ;;		___wmul
  1483 ;; This function is called by:
  1484 ;;		_main
  1485 ;; This function uses a non-reentrant model
  1486 ;;
  1487                           
  1488                           
  1489                           ;psect for function _char_2_dec
  1490  012F                     _char_2_dec:
  1491  012F                     l1519:	
  1492                           ;incstack = 0
  1493                           ; Regs used in _char_2_dec: [wreg+status,2+status,0+pclath+cstack]
  1494                           
  1495                           
  1496                           ;LAB4_main.c: 105:     uint16_t zeta;;LAB4_main.c: 106:     zeta = z;
  1497  012F  0879               	movf	char_2_dec@z+1,w
  1498  0130  00FD               	movwf	char_2_dec@zeta+1
  1499  0131  0878               	movf	char_2_dec@z,w
  1500  0132  00FC               	movwf	char_2_dec@zeta
  1501  0133                     l1521:
  1502                           
  1503                           ;LAB4_main.c: 107:     unit0 = (zeta/100) ;
  1504  0133  3064               	movlw	100
  1505  0134  00F0               	movwf	___lwdiv@divisor
  1506  0135  3000               	movlw	0
  1507  0136  00F1               	movwf	___lwdiv@divisor+1
  1508  0137  087D               	movf	char_2_dec@zeta+1,w
  1509  0138  00F3               	movwf	___lwdiv@dividend+1
  1510  0139  087C               	movf	char_2_dec@zeta,w
  1511  013A  00F2               	movwf	___lwdiv@dividend
  1512  013B  120A  158A  27BC  120A  118A  	fcall	___lwdiv
  1513  0140  0870               	movf	?___lwdiv,w
  1514  0141  00FA               	movwf	??_char_2_dec
  1515  0142  087A               	movf	??_char_2_dec,w
  1516  0143  1283               	bcf	3,5	;RP0=0, select bank0
  1517  0144  1303               	bcf	3,6	;RP1=0, select bank0
  1518  0145  00CE               	movwf	_unit0
  1519  0146                     l1523:
  1520                           
  1521                           ;LAB4_main.c: 108:     zeta = (zeta - (unit0*100));
  1522  0146  084E               	movf	_unit0,w
  1523  0147  00FA               	movwf	??_char_2_dec
  1524  0148  01FB               	clrf	??_char_2_dec+1
  1525  0149  087A               	movf	??_char_2_dec,w
  1526  014A  00F0               	movwf	___wmul@multiplier
  1527  014B  087B               	movf	??_char_2_dec+1,w
  1528  014C  00F1               	movwf	___wmul@multiplier+1
  1529  014D  309C               	movlw	156
  1530  014E  00F2               	movwf	___wmul@multiplicand
  1531  014F  30FF               	movlw	255
  1532  0150  00F3               	movwf	___wmul@multiplicand+1
  1533  0151  120A  158A  270A  120A  118A  	fcall	___wmul
  1534  0156  087C               	movf	char_2_dec@zeta,w
  1535  0157  0770               	addwf	?___wmul,w
  1536  0158  00FC               	movwf	char_2_dec@zeta
  1537  0159  087D               	movf	char_2_dec@zeta+1,w
  1538  015A  1803               	skipnc
  1539  015B  0A7D               	incf	char_2_dec@zeta+1,w
  1540  015C  0771               	addwf	?___wmul+1,w
  1541  015D  00FD               	movwf	char_2_dec@zeta+1
  1542  015E                     l1525:
  1543                           
  1544                           ;LAB4_main.c: 109:     dec0 = (zeta/10);
  1545  015E  300A               	movlw	10
  1546  015F  00F0               	movwf	___lwdiv@divisor
  1547  0160  3000               	movlw	0
  1548  0161  00F1               	movwf	___lwdiv@divisor+1
  1549  0162  087D               	movf	char_2_dec@zeta+1,w
  1550  0163  00F3               	movwf	___lwdiv@dividend+1
  1551  0164  087C               	movf	char_2_dec@zeta,w
  1552  0165  00F2               	movwf	___lwdiv@dividend
  1553  0166  120A  158A  27BC  120A  118A  	fcall	___lwdiv
  1554  016B  0870               	movf	?___lwdiv,w
  1555  016C  00FA               	movwf	??_char_2_dec
  1556  016D  087A               	movf	??_char_2_dec,w
  1557  016E  1283               	bcf	3,5	;RP0=0, select bank0
  1558  016F  1303               	bcf	3,6	;RP1=0, select bank0
  1559  0170  00CC               	movwf	_dec0
  1560  0171                     l1527:
  1561                           
  1562                           ;LAB4_main.c: 110:     zeta = (zeta - (dec0*10));
  1563  0171  084C               	movf	_dec0,w
  1564  0172  00FA               	movwf	??_char_2_dec
  1565  0173  01FB               	clrf	??_char_2_dec+1
  1566  0174  087A               	movf	??_char_2_dec,w
  1567  0175  00F0               	movwf	___wmul@multiplier
  1568  0176  087B               	movf	??_char_2_dec+1,w
  1569  0177  00F1               	movwf	___wmul@multiplier+1
  1570  0178  30F6               	movlw	246
  1571  0179  00F2               	movwf	___wmul@multiplicand
  1572  017A  30FF               	movlw	255
  1573  017B  00F3               	movwf	___wmul@multiplicand+1
  1574  017C  120A  158A  270A  120A  118A  	fcall	___wmul
  1575  0181  087C               	movf	char_2_dec@zeta,w
  1576  0182  0770               	addwf	?___wmul,w
  1577  0183  00FC               	movwf	char_2_dec@zeta
  1578  0184  087D               	movf	char_2_dec@zeta+1,w
  1579  0185  1803               	skipnc
  1580  0186  0A7D               	incf	char_2_dec@zeta+1,w
  1581  0187  0771               	addwf	?___wmul+1,w
  1582  0188  00FD               	movwf	char_2_dec@zeta+1
  1583                           
  1584                           ;LAB4_main.c: 111:     dec1 = (zeta);
  1585  0189  087C               	movf	char_2_dec@zeta,w
  1586  018A  00FA               	movwf	??_char_2_dec
  1587  018B  087A               	movf	??_char_2_dec,w
  1588  018C  1283               	bcf	3,5	;RP0=0, select bank0
  1589  018D  1303               	bcf	3,6	;RP1=0, select bank0
  1590  018E  00CB               	movwf	_dec1
  1591  018F                     l1529:
  1592                           
  1593                           ;LAB4_main.c: 112:     unit0 = unit0 + 48;
  1594  018F  084E               	movf	_unit0,w
  1595  0190  3E30               	addlw	48
  1596  0191  00FA               	movwf	??_char_2_dec
  1597  0192  087A               	movf	??_char_2_dec,w
  1598  0193  00CE               	movwf	_unit0
  1599  0194                     l1531:
  1600                           
  1601                           ;LAB4_main.c: 113:     dec0 = dec0 + 48;
  1602  0194  084C               	movf	_dec0,w
  1603  0195  3E30               	addlw	48
  1604  0196  00FA               	movwf	??_char_2_dec
  1605  0197  087A               	movf	??_char_2_dec,w
  1606  0198  00CC               	movwf	_dec0
  1607  0199                     l1533:
  1608                           
  1609                           ;LAB4_main.c: 114:     dec1 = dec1 + 48;
  1610  0199  084B               	movf	_dec1,w
  1611  019A  3E30               	addlw	48
  1612  019B  00FA               	movwf	??_char_2_dec
  1613  019C  087A               	movf	??_char_2_dec,w
  1614  019D  00CB               	movwf	_dec1
  1615  019E                     l178:
  1616  019E  0008               	return
  1617  019F                     __end_of_char_2_dec:
  1618                           
  1619                           	psect	text5
  1620  0F0A                     __ptext5:	
  1621 ;; *************** function ___wmul *****************
  1622 ;; Defined at:
  1623 ;;		line 15 in file "C:\Program Files\Microchip\xc8\v2.32\pic\sources\c90\common\Umul16.c"
  1624 ;; Parameters:    Size  Location     Type
  1625 ;;  multiplier      2    0[COMMON] unsigned int 
  1626 ;;  multiplicand    2    2[COMMON] unsigned int 
  1627 ;; Auto vars:     Size  Location     Type
  1628 ;;  product         2    4[COMMON] unsigned int 
  1629 ;; Return value:  Size  Location     Type
  1630 ;;                  2    0[COMMON] unsigned int 
  1631 ;; Registers used:
  1632 ;;		wreg, status,2, status,0
  1633 ;; Tracked objects:
  1634 ;;		On entry : 0/0
  1635 ;;		On exit  : 0/0
  1636 ;;		Unchanged: 0/0
  1637 ;; Data sizes:     COMMON   BANK0   BANK1   BANK3   BANK2
  1638 ;;      Params:         4       0       0       0       0
  1639 ;;      Locals:         2       0       0       0       0
  1640 ;;      Temps:          0       0       0       0       0
  1641 ;;      Totals:         6       0       0       0       0
  1642 ;;Total ram usage:        6 bytes
  1643 ;; Hardware stack levels used: 1
  1644 ;; This function calls:
  1645 ;;		Nothing
  1646 ;; This function is called by:
  1647 ;;		_char_2_dec
  1648 ;; This function uses a non-reentrant model
  1649 ;;
  1650                           
  1651                           
  1652                           ;psect for function ___wmul
  1653  0F0A                     ___wmul:
  1654  0F0A                     l1387:	
  1655                           ;incstack = 0
  1656                           ; Regs used in ___wmul: [wreg+status,2+status,0]
  1657                           
  1658  0F0A  01F4               	clrf	___wmul@product
  1659  0F0B  01F5               	clrf	___wmul@product+1
  1660  0F0C                     l1389:
  1661  0F0C  1C70               	btfss	___wmul@multiplier,0
  1662  0F0D  2F0F               	goto	u1031
  1663  0F0E  2F10               	goto	u1030
  1664  0F0F                     u1031:
  1665  0F0F  2F16               	goto	l267
  1666  0F10                     u1030:
  1667  0F10                     l1391:
  1668  0F10  0872               	movf	___wmul@multiplicand,w
  1669  0F11  07F4               	addwf	___wmul@product,f
  1670  0F12  1803               	skipnc
  1671  0F13  0AF5               	incf	___wmul@product+1,f
  1672  0F14  0873               	movf	___wmul@multiplicand+1,w
  1673  0F15  07F5               	addwf	___wmul@product+1,f
  1674  0F16                     l267:
  1675  0F16  3001               	movlw	1
  1676  0F17                     u1045:
  1677  0F17  1003               	clrc
  1678  0F18  0DF2               	rlf	___wmul@multiplicand,f
  1679  0F19  0DF3               	rlf	___wmul@multiplicand+1,f
  1680  0F1A  3EFF               	addlw	-1
  1681  0F1B  1D03               	skipz
  1682  0F1C  2F17               	goto	u1045
  1683  0F1D                     l1393:
  1684  0F1D  3001               	movlw	1
  1685  0F1E                     u1055:
  1686  0F1E  1003               	clrc
  1687  0F1F  0CF1               	rrf	___wmul@multiplier+1,f
  1688  0F20  0CF0               	rrf	___wmul@multiplier,f
  1689  0F21  3EFF               	addlw	-1
  1690  0F22  1D03               	skipz
  1691  0F23  2F1E               	goto	u1055
  1692  0F24                     l1395:
  1693  0F24  0870               	movf	___wmul@multiplier,w
  1694  0F25  0471               	iorwf	___wmul@multiplier+1,w
  1695  0F26  1D03               	btfss	3,2
  1696  0F27  2F29               	goto	u1061
  1697  0F28  2F2A               	goto	u1060
  1698  0F29                     u1061:
  1699  0F29  2F0C               	goto	l1389
  1700  0F2A                     u1060:
  1701  0F2A                     l1397:
  1702  0F2A  0875               	movf	___wmul@product+1,w
  1703  0F2B  00F1               	movwf	?___wmul+1
  1704  0F2C  0874               	movf	___wmul@product,w
  1705  0F2D  00F0               	movwf	?___wmul
  1706  0F2E                     l269:
  1707  0F2E  0008               	return
  1708  0F2F                     __end_of___wmul:
  1709                           
  1710                           	psect	text6
  1711  0FBC                     __ptext6:	
  1712 ;; *************** function ___lwdiv *****************
  1713 ;; Defined at:
  1714 ;;		line 5 in file "C:\Program Files\Microchip\xc8\v2.32\pic\sources\c90\common\lwdiv.c"
  1715 ;; Parameters:    Size  Location     Type
  1716 ;;  divisor         2    0[COMMON] unsigned int 
  1717 ;;  dividend        2    2[COMMON] unsigned int 
  1718 ;; Auto vars:     Size  Location     Type
  1719 ;;  quotient        2    5[COMMON] unsigned int 
  1720 ;;  counter         1    7[COMMON] unsigned char 
  1721 ;; Return value:  Size  Location     Type
  1722 ;;                  2    0[COMMON] unsigned int 
  1723 ;; Registers used:
  1724 ;;		wreg, status,2, status,0
  1725 ;; Tracked objects:
  1726 ;;		On entry : 0/0
  1727 ;;		On exit  : 0/0
  1728 ;;		Unchanged: 0/0
  1729 ;; Data sizes:     COMMON   BANK0   BANK1   BANK3   BANK2
  1730 ;;      Params:         4       0       0       0       0
  1731 ;;      Locals:         3       0       0       0       0
  1732 ;;      Temps:          1       0       0       0       0
  1733 ;;      Totals:         8       0       0       0       0
  1734 ;;Total ram usage:        8 bytes
  1735 ;; Hardware stack levels used: 1
  1736 ;; This function calls:
  1737 ;;		Nothing
  1738 ;; This function is called by:
  1739 ;;		_char_2_dec
  1740 ;; This function uses a non-reentrant model
  1741 ;;
  1742                           
  1743                           
  1744                           ;psect for function ___lwdiv
  1745  0FBC                     ___lwdiv:
  1746  0FBC                     l1401:	
  1747                           ;incstack = 0
  1748                           ; Regs used in ___lwdiv: [wreg+status,2+status,0]
  1749                           
  1750  0FBC  01F5               	clrf	___lwdiv@quotient
  1751  0FBD  01F6               	clrf	___lwdiv@quotient+1
  1752  0FBE                     l1403:
  1753  0FBE  0870               	movf	___lwdiv@divisor,w
  1754  0FBF  0471               	iorwf	___lwdiv@divisor+1,w
  1755  0FC0  1903               	btfsc	3,2
  1756  0FC1  2FC3               	goto	u1071
  1757  0FC2  2FC4               	goto	u1070
  1758  0FC3                     u1071:
  1759  0FC3  2FFB               	goto	l1423
  1760  0FC4                     u1070:
  1761  0FC4                     l1405:
  1762  0FC4  01F7               	clrf	___lwdiv@counter
  1763  0FC5  0AF7               	incf	___lwdiv@counter,f
  1764  0FC6  2FD2               	goto	l1411
  1765  0FC7                     l1407:
  1766  0FC7  3001               	movlw	1
  1767  0FC8                     u1085:
  1768  0FC8  1003               	clrc
  1769  0FC9  0DF0               	rlf	___lwdiv@divisor,f
  1770  0FCA  0DF1               	rlf	___lwdiv@divisor+1,f
  1771  0FCB  3EFF               	addlw	-1
  1772  0FCC  1D03               	skipz
  1773  0FCD  2FC8               	goto	u1085
  1774  0FCE                     l1409:
  1775  0FCE  3001               	movlw	1
  1776  0FCF  00F4               	movwf	??___lwdiv
  1777  0FD0  0874               	movf	??___lwdiv,w
  1778  0FD1  07F7               	addwf	___lwdiv@counter,f
  1779  0FD2                     l1411:
  1780  0FD2  1FF1               	btfss	___lwdiv@divisor+1,7
  1781  0FD3  2FD5               	goto	u1091
  1782  0FD4  2FD6               	goto	u1090
  1783  0FD5                     u1091:
  1784  0FD5  2FC7               	goto	l1407
  1785  0FD6                     u1090:
  1786  0FD6                     l1413:
  1787  0FD6  3001               	movlw	1
  1788  0FD7                     u1105:
  1789  0FD7  1003               	clrc
  1790  0FD8  0DF5               	rlf	___lwdiv@quotient,f
  1791  0FD9  0DF6               	rlf	___lwdiv@quotient+1,f
  1792  0FDA  3EFF               	addlw	-1
  1793  0FDB  1D03               	skipz
  1794  0FDC  2FD7               	goto	u1105
  1795  0FDD  0871               	movf	___lwdiv@divisor+1,w
  1796  0FDE  0273               	subwf	___lwdiv@dividend+1,w
  1797  0FDF  1D03               	skipz
  1798  0FE0  2FE3               	goto	u1115
  1799  0FE1  0870               	movf	___lwdiv@divisor,w
  1800  0FE2  0272               	subwf	___lwdiv@dividend,w
  1801  0FE3                     u1115:
  1802  0FE3  1C03               	skipc
  1803  0FE4  2FE6               	goto	u1111
  1804  0FE5  2FE7               	goto	u1110
  1805  0FE6                     u1111:
  1806  0FE6  2FEE               	goto	l1419
  1807  0FE7                     u1110:
  1808  0FE7                     l1415:
  1809  0FE7  0870               	movf	___lwdiv@divisor,w
  1810  0FE8  02F2               	subwf	___lwdiv@dividend,f
  1811  0FE9  0871               	movf	___lwdiv@divisor+1,w
  1812  0FEA  1C03               	skipc
  1813  0FEB  03F3               	decf	___lwdiv@dividend+1,f
  1814  0FEC  02F3               	subwf	___lwdiv@dividend+1,f
  1815  0FED                     l1417:
  1816  0FED  1475               	bsf	___lwdiv@quotient,0
  1817  0FEE                     l1419:
  1818  0FEE  3001               	movlw	1
  1819  0FEF                     u1125:
  1820  0FEF  1003               	clrc
  1821  0FF0  0CF1               	rrf	___lwdiv@divisor+1,f
  1822  0FF1  0CF0               	rrf	___lwdiv@divisor,f
  1823  0FF2  3EFF               	addlw	-1
  1824  0FF3  1D03               	skipz
  1825  0FF4  2FEF               	goto	u1125
  1826  0FF5                     l1421:
  1827  0FF5  3001               	movlw	1
  1828  0FF6  02F7               	subwf	___lwdiv@counter,f
  1829  0FF7  1D03               	btfss	3,2
  1830  0FF8  2FFA               	goto	u1131
  1831  0FF9  2FFB               	goto	u1130
  1832  0FFA                     u1131:
  1833  0FFA  2FD6               	goto	l1413
  1834  0FFB                     u1130:
  1835  0FFB                     l1423:
  1836  0FFB  0876               	movf	___lwdiv@quotient+1,w
  1837  0FFC  00F1               	movwf	?___lwdiv+1
  1838  0FFD  0875               	movf	___lwdiv@quotient,w
  1839  0FFE  00F0               	movwf	?___lwdiv
  1840  0FFF                     l539:
  1841  0FFF  0008               	return
  1842  1000                     __end_of___lwdiv:
  1843                           
  1844                           	psect	text7
  1845  021B                     __ptext7:	
  1846 ;; *************** function ___xxtofl *****************
  1847 ;; Defined at:
  1848 ;;		line 10 in file "C:\Program Files\Microchip\xc8\v2.32\pic\sources\c90\common\xxtofl.c"
  1849 ;; Parameters:    Size  Location     Type
  1850 ;;  sign            1    wreg     unsigned char 
  1851 ;;  val             4    0[COMMON] long 
  1852 ;; Auto vars:     Size  Location     Type
  1853 ;;  sign            1    8[COMMON] unsigned char 
  1854 ;;  arg             4   10[COMMON] unsigned long 
  1855 ;;  exp             1    9[COMMON] unsigned char 
  1856 ;; Return value:  Size  Location     Type
  1857 ;;                  4    0[COMMON] unsigned char 
  1858 ;; Registers used:
  1859 ;;		wreg, status,2, status,0
  1860 ;; Tracked objects:
  1861 ;;		On entry : 0/0
  1862 ;;		On exit  : 0/0
  1863 ;;		Unchanged: 0/0
  1864 ;; Data sizes:     COMMON   BANK0   BANK1   BANK3   BANK2
  1865 ;;      Params:         4       0       0       0       0
  1866 ;;      Locals:         6       0       0       0       0
  1867 ;;      Temps:          4       0       0       0       0
  1868 ;;      Totals:        14       0       0       0       0
  1869 ;;Total ram usage:       14 bytes
  1870 ;; Hardware stack levels used: 1
  1871 ;; This function calls:
  1872 ;;		Nothing
  1873 ;; This function is called by:
  1874 ;;		_main
  1875 ;; This function uses a non-reentrant model
  1876 ;;
  1877                           
  1878                           
  1879                           ;psect for function ___xxtofl
  1880  021B                     ___xxtofl:
  1881                           
  1882                           ;incstack = 0
  1883                           ; Regs used in ___xxtofl: [wreg+status,2+status,0]
  1884                           ;___xxtofl@sign stored from wreg
  1885  021B  00F8               	movwf	___xxtofl@sign
  1886  021C                     l1711:
  1887  021C  0878               	movf	___xxtofl@sign,w
  1888  021D  1903               	btfsc	3,2
  1889  021E  2A20               	goto	u1691
  1890  021F  2A21               	goto	u1690
  1891  0220                     u1691:
  1892  0220  2A35               	goto	l1717
  1893  0221                     u1690:
  1894  0221                     l1713:
  1895  0221  1FF3               	btfss	___xxtofl@val+3,7
  1896  0222  2A24               	goto	u1701
  1897  0223  2A25               	goto	u1700
  1898  0224                     u1701:
  1899  0224  2A35               	goto	l1717
  1900  0225                     u1700:
  1901  0225                     l1715:
  1902  0225  0970               	comf	___xxtofl@val,w
  1903  0226  00FA               	movwf	___xxtofl@arg
  1904  0227  0971               	comf	___xxtofl@val+1,w
  1905  0228  00FB               	movwf	___xxtofl@arg+1
  1906  0229  0972               	comf	___xxtofl@val+2,w
  1907  022A  00FC               	movwf	___xxtofl@arg+2
  1908  022B  0973               	comf	___xxtofl@val+3,w
  1909  022C  00FD               	movwf	___xxtofl@arg+3
  1910  022D  0AFA               	incf	___xxtofl@arg,f
  1911  022E  1903               	skipnz
  1912  022F  0AFB               	incf	___xxtofl@arg+1,f
  1913  0230  1903               	skipnz
  1914  0231  0AFC               	incf	___xxtofl@arg+2,f
  1915  0232  1903               	skipnz
  1916  0233  0AFD               	incf	___xxtofl@arg+3,f
  1917  0234  2A3D               	goto	l700
  1918  0235                     l1717:
  1919  0235  0873               	movf	___xxtofl@val+3,w
  1920  0236  00FD               	movwf	___xxtofl@arg+3
  1921  0237  0872               	movf	___xxtofl@val+2,w
  1922  0238  00FC               	movwf	___xxtofl@arg+2
  1923  0239  0871               	movf	___xxtofl@val+1,w
  1924  023A  00FB               	movwf	___xxtofl@arg+1
  1925  023B  0870               	movf	___xxtofl@val,w
  1926  023C  00FA               	movwf	___xxtofl@arg
  1927  023D                     l700:
  1928  023D  0873               	movf	___xxtofl@val+3,w
  1929  023E  0472               	iorwf	___xxtofl@val+2,w
  1930  023F  0471               	iorwf	___xxtofl@val+1,w
  1931  0240  0470               	iorwf	___xxtofl@val,w
  1932  0241  1D03               	skipz
  1933  0242  2A44               	goto	u1711
  1934  0243  2A45               	goto	u1710
  1935  0244                     u1711:
  1936  0244  2A4E               	goto	l1723
  1937  0245                     u1710:
  1938  0245                     l1719:
  1939  0245  3000               	movlw	0
  1940  0246  00F3               	movwf	?___xxtofl+3
  1941  0247  3000               	movlw	0
  1942  0248  00F2               	movwf	?___xxtofl+2
  1943  0249  3000               	movlw	0
  1944  024A  00F1               	movwf	?___xxtofl+1
  1945  024B  3000               	movlw	0
  1946  024C  00F0               	movwf	?___xxtofl
  1947  024D  2AD4               	goto	l702
  1948  024E                     l1723:
  1949  024E  3096               	movlw	150
  1950  024F  00F4               	movwf	??___xxtofl
  1951  0250  0874               	movf	??___xxtofl,w
  1952  0251  00F9               	movwf	___xxtofl@exp
  1953  0252  2A60               	goto	l1727
  1954  0253                     l1725:
  1955  0253  3001               	movlw	1
  1956  0254  00F4               	movwf	??___xxtofl
  1957  0255  0874               	movf	??___xxtofl,w
  1958  0256  07F9               	addwf	___xxtofl@exp,f
  1959  0257  3001               	movlw	1
  1960  0258                     u1725:
  1961  0258  1003               	clrc
  1962  0259  0CFD               	rrf	___xxtofl@arg+3,f
  1963  025A  0CFC               	rrf	___xxtofl@arg+2,f
  1964  025B  0CFB               	rrf	___xxtofl@arg+1,f
  1965  025C  0CFA               	rrf	___xxtofl@arg,f
  1966  025D  3EFF               	addlw	-1
  1967  025E  1D03               	skipz
  1968  025F  2A58               	goto	u1725
  1969  0260                     l1727:
  1970  0260  30FE               	movlw	254
  1971  0261  057D               	andwf	___xxtofl@arg+3,w
  1972  0262  1D03               	btfss	3,2
  1973  0263  2A65               	goto	u1731
  1974  0264  2A66               	goto	u1730
  1975  0265                     u1731:
  1976  0265  2A53               	goto	l1725
  1977  0266                     u1730:
  1978  0266  2A82               	goto	l706
  1979  0267                     l1729:
  1980  0267  3001               	movlw	1
  1981  0268  00F4               	movwf	??___xxtofl
  1982  0269  0874               	movf	??___xxtofl,w
  1983  026A  07F9               	addwf	___xxtofl@exp,f
  1984  026B                     l1731:
  1985  026B  3001               	movlw	1
  1986  026C  07FA               	addwf	___xxtofl@arg,f
  1987  026D  3000               	movlw	0
  1988  026E  1803               	skipnc
  1989  026F  3001               	movlw	1
  1990  0270  07FB               	addwf	___xxtofl@arg+1,f
  1991  0271  3000               	movlw	0
  1992  0272  1803               	skipnc
  1993  0273  3001               	movlw	1
  1994  0274  07FC               	addwf	___xxtofl@arg+2,f
  1995  0275  3000               	movlw	0
  1996  0276  1803               	skipnc
  1997  0277  3001               	movlw	1
  1998  0278  07FD               	addwf	___xxtofl@arg+3,f
  1999  0279                     l1733:
  2000  0279  3001               	movlw	1
  2001  027A                     u1745:
  2002  027A  1003               	clrc
  2003  027B  0CFD               	rrf	___xxtofl@arg+3,f
  2004  027C  0CFC               	rrf	___xxtofl@arg+2,f
  2005  027D  0CFB               	rrf	___xxtofl@arg+1,f
  2006  027E  0CFA               	rrf	___xxtofl@arg,f
  2007  027F  3EFF               	addlw	-1
  2008  0280  1D03               	skipz
  2009  0281  2A7A               	goto	u1745
  2010  0282                     l706:
  2011  0282  30FF               	movlw	255
  2012  0283  057D               	andwf	___xxtofl@arg+3,w
  2013  0284  1D03               	btfss	3,2
  2014  0285  2A87               	goto	u1751
  2015  0286  2A88               	goto	u1750
  2016  0287                     u1751:
  2017  0287  2A67               	goto	l1729
  2018  0288                     u1750:
  2019  0288  2A94               	goto	l1737
  2020  0289                     l1735:
  2021  0289  3001               	movlw	1
  2022  028A  02F9               	subwf	___xxtofl@exp,f
  2023  028B  3001               	movlw	1
  2024  028C  00F4               	movwf	??___xxtofl
  2025  028D                     u1765:
  2026  028D  1003               	clrc
  2027  028E  0DFA               	rlf	___xxtofl@arg,f
  2028  028F  0DFB               	rlf	___xxtofl@arg+1,f
  2029  0290  0DFC               	rlf	___xxtofl@arg+2,f
  2030  0291  0DFD               	rlf	___xxtofl@arg+3,f
  2031  0292  0BF4               	decfsz	??___xxtofl,f
  2032  0293  2A8D               	goto	u1765
  2033  0294                     l1737:
  2034  0294  1BFC               	btfsc	___xxtofl@arg+2,7
  2035  0295  2A97               	goto	u1771
  2036  0296  2A98               	goto	u1770
  2037  0297                     u1771:
  2038  0297  2A9E               	goto	l713
  2039  0298                     u1770:
  2040  0298                     l1739:
  2041  0298  3002               	movlw	2
  2042  0299  0279               	subwf	___xxtofl@exp,w
  2043  029A  1803               	skipnc
  2044  029B  2A9D               	goto	u1781
  2045  029C  2A9E               	goto	u1780
  2046  029D                     u1781:
  2047  029D  2A89               	goto	l1735
  2048  029E                     u1780:
  2049  029E                     l713:
  2050  029E  1879               	btfsc	___xxtofl@exp,0
  2051  029F  2AA1               	goto	u1791
  2052  02A0  2AA2               	goto	u1790
  2053  02A1                     u1791:
  2054  02A1  2AAA               	goto	l714
  2055  02A2                     u1790:
  2056  02A2                     l1741:
  2057  02A2  30FF               	movlw	255
  2058  02A3  05FA               	andwf	___xxtofl@arg,f
  2059  02A4  30FF               	movlw	255
  2060  02A5  05FB               	andwf	___xxtofl@arg+1,f
  2061  02A6  307F               	movlw	127
  2062  02A7  05FC               	andwf	___xxtofl@arg+2,f
  2063  02A8  30FF               	movlw	255
  2064  02A9  05FD               	andwf	___xxtofl@arg+3,f
  2065  02AA                     l714:
  2066  02AA  1003               	clrc
  2067  02AB  0CF9               	rrf	___xxtofl@exp,f
  2068  02AC                     l1743:
  2069  02AC  0879               	movf	___xxtofl@exp,w
  2070  02AD  00F4               	movwf	??___xxtofl
  2071  02AE  01F5               	clrf	??___xxtofl+1
  2072  02AF  01F6               	clrf	??___xxtofl+2
  2073  02B0  01F7               	clrf	??___xxtofl+3
  2074  02B1  3018               	movlw	24
  2075  02B2                     u1805:
  2076  02B2  1003               	clrc
  2077  02B3  0DF4               	rlf	??___xxtofl,f
  2078  02B4  0DF5               	rlf	??___xxtofl+1,f
  2079  02B5  0DF6               	rlf	??___xxtofl+2,f
  2080  02B6  0DF7               	rlf	??___xxtofl+3,f
  2081  02B7                     u1800:
  2082  02B7  3EFF               	addlw	-1
  2083  02B8  1D03               	skipz
  2084  02B9  2AB2               	goto	u1805
  2085  02BA  0874               	movf	??___xxtofl,w
  2086  02BB  04FA               	iorwf	___xxtofl@arg,f
  2087  02BC  0875               	movf	??___xxtofl+1,w
  2088  02BD  04FB               	iorwf	___xxtofl@arg+1,f
  2089  02BE  0876               	movf	??___xxtofl+2,w
  2090  02BF  04FC               	iorwf	___xxtofl@arg+2,f
  2091  02C0  0877               	movf	??___xxtofl+3,w
  2092  02C1  04FD               	iorwf	___xxtofl@arg+3,f
  2093  02C2                     l1745:
  2094  02C2  0878               	movf	___xxtofl@sign,w
  2095  02C3  1903               	btfsc	3,2
  2096  02C4  2AC6               	goto	u1811
  2097  02C5  2AC7               	goto	u1810
  2098  02C6                     u1811:
  2099  02C6  2ACC               	goto	l1751
  2100  02C7                     u1810:
  2101  02C7                     l1747:
  2102  02C7  1FF3               	btfss	___xxtofl@val+3,7
  2103  02C8  2ACA               	goto	u1821
  2104  02C9  2ACB               	goto	u1820
  2105  02CA                     u1821:
  2106  02CA  2ACC               	goto	l1751
  2107  02CB                     u1820:
  2108  02CB                     l1749:
  2109  02CB  17FD               	bsf	___xxtofl@arg+3,7
  2110  02CC                     l1751:
  2111  02CC  087D               	movf	___xxtofl@arg+3,w
  2112  02CD  00F3               	movwf	?___xxtofl+3
  2113  02CE  087C               	movf	___xxtofl@arg+2,w
  2114  02CF  00F2               	movwf	?___xxtofl+2
  2115  02D0  087B               	movf	___xxtofl@arg+1,w
  2116  02D1  00F1               	movwf	?___xxtofl+1
  2117  02D2  087A               	movf	___xxtofl@arg,w
  2118  02D3  00F0               	movwf	?___xxtofl
  2119  02D4                     l702:
  2120  02D4  0008               	return
  2121  02D5                     __end_of___xxtofl:
  2122                           
  2123                           	psect	text8
  2124  019F                     __ptext8:	
  2125 ;; *************** function ___fltol *****************
  2126 ;; Defined at:
  2127 ;;		line 43 in file "C:\Program Files\Microchip\xc8\v2.32\pic\sources\c90\common\fltol.c"
  2128 ;; Parameters:    Size  Location     Type
  2129 ;;  f1              4   26[BANK0 ] unsigned char 
  2130 ;; Auto vars:     Size  Location     Type
  2131 ;;  exp1            1   36[BANK0 ] unsigned char 
  2132 ;;  sign1           1   35[BANK0 ] unsigned char 
  2133 ;; Return value:  Size  Location     Type
  2134 ;;                  4   26[BANK0 ] long 
  2135 ;; Registers used:
  2136 ;;		wreg, status,2, status,0
  2137 ;; Tracked objects:
  2138 ;;		On entry : 0/0
  2139 ;;		On exit  : 0/0
  2140 ;;		Unchanged: 0/0
  2141 ;; Data sizes:     COMMON   BANK0   BANK1   BANK3   BANK2
  2142 ;;      Params:         0       4       0       0       0
  2143 ;;      Locals:         0       2       0       0       0
  2144 ;;      Temps:          0       5       0       0       0
  2145 ;;      Totals:         0      11       0       0       0
  2146 ;;Total ram usage:       11 bytes
  2147 ;; Hardware stack levels used: 1
  2148 ;; This function calls:
  2149 ;;		Nothing
  2150 ;; This function is called by:
  2151 ;;		_main
  2152 ;; This function uses a non-reentrant model
  2153 ;;
  2154                           
  2155                           
  2156                           ;psect for function ___fltol
  2157  019F                     ___fltol:
  2158  019F                     l1535:	
  2159                           ;incstack = 0
  2160                           ; Regs used in ___fltol: [wreg+status,2+status,0]
  2161                           
  2162  019F  1003               	clrc
  2163  01A0  1283               	bcf	3,5	;RP0=0, select bank0
  2164  01A1  1303               	bcf	3,6	;RP1=0, select bank0
  2165  01A2  0D3C               	rlf	___fltol@f1+2,w
  2166  01A3  0D3D               	rlf	___fltol@f1+3,w
  2167  01A4  00BE               	movwf	??___fltol
  2168  01A5  083E               	movf	??___fltol,w
  2169  01A6  00C4               	movwf	___fltol@exp1
  2170  01A7  0844               	movf	___fltol@exp1,w
  2171  01A8  1D03               	btfss	3,2
  2172  01A9  29AB               	goto	u1221
  2173  01AA  29AC               	goto	u1220
  2174  01AB                     u1221:
  2175  01AB  29B5               	goto	l1541
  2176  01AC                     u1220:
  2177  01AC                     l1537:
  2178  01AC  3000               	movlw	0
  2179  01AD  00BD               	movwf	?___fltol+3
  2180  01AE  3000               	movlw	0
  2181  01AF  00BC               	movwf	?___fltol+2
  2182  01B0  3000               	movlw	0
  2183  01B1  00BB               	movwf	?___fltol+1
  2184  01B2  3000               	movlw	0
  2185  01B3  00BA               	movwf	?___fltol
  2186  01B4  2A1A               	goto	l453
  2187  01B5                     l1541:
  2188  01B5  083A               	movf	___fltol@f1,w
  2189  01B6  00BE               	movwf	??___fltol
  2190  01B7  083B               	movf	___fltol@f1+1,w
  2191  01B8  00BF               	movwf	??___fltol+1
  2192  01B9  083C               	movf	___fltol@f1+2,w
  2193  01BA  00C0               	movwf	??___fltol+2
  2194  01BB  083D               	movf	___fltol@f1+3,w
  2195  01BC  00C1               	movwf	??___fltol+3
  2196  01BD  301F               	movlw	31
  2197  01BE                     u1235:
  2198  01BE  1003               	clrc
  2199  01BF  0CC1               	rrf	??___fltol+3,f
  2200  01C0  0CC0               	rrf	??___fltol+2,f
  2201  01C1  0CBF               	rrf	??___fltol+1,f
  2202  01C2  0CBE               	rrf	??___fltol,f
  2203  01C3                     u1230:
  2204  01C3  3EFF               	addlw	-1
  2205  01C4  1D03               	skipz
  2206  01C5  29BE               	goto	u1235
  2207  01C6  083E               	movf	??___fltol,w
  2208  01C7  00C2               	movwf	??___fltol+4
  2209  01C8  0842               	movf	??___fltol+4,w
  2210  01C9  00C3               	movwf	___fltol@sign1
  2211  01CA                     l1543:
  2212  01CA  17BC               	bsf	___fltol@f1+2,7
  2213  01CB                     l1545:
  2214  01CB  30FF               	movlw	255
  2215  01CC  05BA               	andwf	___fltol@f1,f
  2216  01CD  30FF               	movlw	255
  2217  01CE  05BB               	andwf	___fltol@f1+1,f
  2218  01CF  30FF               	movlw	255
  2219  01D0  05BC               	andwf	___fltol@f1+2,f
  2220  01D1  3000               	movlw	0
  2221  01D2  05BD               	andwf	___fltol@f1+3,f
  2222  01D3                     l1547:
  2223  01D3  3096               	movlw	150
  2224  01D4  02C4               	subwf	___fltol@exp1,f
  2225  01D5                     l1549:
  2226  01D5  1FC4               	btfss	___fltol@exp1,7
  2227  01D6  29D8               	goto	u1241
  2228  01D7  29D9               	goto	u1240
  2229  01D8                     u1241:
  2230  01D8  29F3               	goto	l1559
  2231  01D9                     u1240:
  2232  01D9                     l1551:
  2233  01D9  0844               	movf	___fltol@exp1,w
  2234  01DA  3A80               	xorlw	128
  2235  01DB  3E97               	addlw	151
  2236  01DC  1803               	skipnc
  2237  01DD  29DF               	goto	u1251
  2238  01DE  29E0               	goto	u1250
  2239  01DF                     u1251:
  2240  01DF  29E1               	goto	l1557
  2241  01E0                     u1250:
  2242  01E0  29AC               	goto	l1537
  2243  01E1                     l1557:
  2244  01E1  3001               	movlw	1
  2245  01E2                     u1265:
  2246  01E2  1003               	clrc
  2247  01E3  0CBD               	rrf	___fltol@f1+3,f
  2248  01E4  0CBC               	rrf	___fltol@f1+2,f
  2249  01E5  0CBB               	rrf	___fltol@f1+1,f
  2250  01E6  0CBA               	rrf	___fltol@f1,f
  2251  01E7  3EFF               	addlw	-1
  2252  01E8  1D03               	skipz
  2253  01E9  29E2               	goto	u1265
  2254  01EA  3001               	movlw	1
  2255  01EB  00BE               	movwf	??___fltol
  2256  01EC  083E               	movf	??___fltol,w
  2257  01ED  07C4               	addwf	___fltol@exp1,f
  2258  01EE  1D03               	btfss	3,2
  2259  01EF  29F1               	goto	u1271
  2260  01F0  29F2               	goto	u1270
  2261  01F1                     u1271:
  2262  01F1  29E1               	goto	l1557
  2263  01F2                     u1270:
  2264  01F2  2A0A               	goto	l1567
  2265  01F3                     l1559:
  2266  01F3  3020               	movlw	32
  2267  01F4  0244               	subwf	___fltol@exp1,w
  2268  01F5  1C03               	skipc
  2269  01F6  29F8               	goto	u1281
  2270  01F7  29F9               	goto	u1280
  2271  01F8                     u1281:
  2272  01F8  2A05               	goto	l460
  2273  01F9                     u1280:
  2274  01F9  29AC               	goto	l1537
  2275  01FA                     l1565:
  2276  01FA  3001               	movlw	1
  2277  01FB  00BE               	movwf	??___fltol
  2278  01FC                     u1295:
  2279  01FC  1003               	clrc
  2280  01FD  0DBA               	rlf	___fltol@f1,f
  2281  01FE  0DBB               	rlf	___fltol@f1+1,f
  2282  01FF  0DBC               	rlf	___fltol@f1+2,f
  2283  0200  0DBD               	rlf	___fltol@f1+3,f
  2284  0201  0BBE               	decfsz	??___fltol,f
  2285  0202  29FC               	goto	u1295
  2286  0203  3001               	movlw	1
  2287  0204  02C4               	subwf	___fltol@exp1,f
  2288  0205                     l460:
  2289  0205  0844               	movf	___fltol@exp1,w
  2290  0206  1D03               	btfss	3,2
  2291  0207  2A09               	goto	u1301
  2292  0208  2A0A               	goto	u1300
  2293  0209                     u1301:
  2294  0209  29FA               	goto	l1565
  2295  020A                     u1300:
  2296  020A                     l1567:
  2297  020A  0843               	movf	___fltol@sign1,w
  2298  020B  1903               	btfsc	3,2
  2299  020C  2A0E               	goto	u1311
  2300  020D  2A0F               	goto	u1310
  2301  020E                     u1311:
  2302  020E  2A1A               	goto	l463
  2303  020F                     u1310:
  2304  020F                     l1569:
  2305  020F  09BA               	comf	___fltol@f1,f
  2306  0210  09BB               	comf	___fltol@f1+1,f
  2307  0211  09BC               	comf	___fltol@f1+2,f
  2308  0212  09BD               	comf	___fltol@f1+3,f
  2309  0213  0ABA               	incf	___fltol@f1,f
  2310  0214  1903               	skipnz
  2311  0215  0ABB               	incf	___fltol@f1+1,f
  2312  0216  1903               	skipnz
  2313  0217  0ABC               	incf	___fltol@f1+2,f
  2314  0218  1903               	skipnz
  2315  0219  0ABD               	incf	___fltol@f1+3,f
  2316  021A                     l463:
  2317  021A                     l453:
  2318  021A  0008               	return
  2319  021B                     __end_of___fltol:
  2320                           
  2321                           	psect	text9
  2322  0491                     __ptext9:	
  2323 ;; *************** function ___flmul *****************
  2324 ;; Defined at:
  2325 ;;		line 8 in file "C:\Program Files\Microchip\xc8\v2.32\pic\sources\c90\common\sprcmul.c"
  2326 ;; Parameters:    Size  Location     Type
  2327 ;;  b               4    0[BANK0 ] long 
  2328 ;;  a               4    4[BANK0 ] long 
  2329 ;; Auto vars:     Size  Location     Type
  2330 ;;  prod            4   20[BANK0 ] struct .
  2331 ;;  grs             4   14[BANK0 ] unsigned long 
  2332 ;;  temp            2   24[BANK0 ] struct .
  2333 ;;  bexp            1   19[BANK0 ] unsigned char 
  2334 ;;  aexp            1   18[BANK0 ] unsigned char 
  2335 ;;  sign            1   13[BANK0 ] unsigned char 
  2336 ;; Return value:  Size  Location     Type
  2337 ;;                  4    0[BANK0 ] unsigned char 
  2338 ;; Registers used:
  2339 ;;		wreg, status,2, status,0, btemp+1, pclath, cstack
  2340 ;; Tracked objects:
  2341 ;;		On entry : 0/0
  2342 ;;		On exit  : 0/0
  2343 ;;		Unchanged: 0/0
  2344 ;; Data sizes:     COMMON   BANK0   BANK1   BANK3   BANK2
  2345 ;;      Params:         0       8       0       0       0
  2346 ;;      Locals:         0      13       0       0       0
  2347 ;;      Temps:          0       5       0       0       0
  2348 ;;      Totals:         0      26       0       0       0
  2349 ;;Total ram usage:       26 bytes
  2350 ;; Hardware stack levels used: 1
  2351 ;; Hardware stack levels required when called: 1
  2352 ;; This function calls:
  2353 ;;		__Umul8_16
  2354 ;; This function is called by:
  2355 ;;		_main
  2356 ;; This function uses a non-reentrant model
  2357 ;;
  2358                           
  2359                           
  2360                           ;psect for function ___flmul
  2361  0491                     ___flmul:
  2362  0491                     l1571:	
  2363                           ;incstack = 0
  2364                           ; Regs used in ___flmul: [wreg+status,2+status,0+btemp+1+pclath+cstack]
  2365                           
  2366  0491  1283               	bcf	3,5	;RP0=0, select bank0
  2367  0492  1303               	bcf	3,6	;RP1=0, select bank0
  2368  0493  0823               	movf	___flmul@b+3,w
  2369  0494  3980               	andlw	128
  2370  0495  00A8               	movwf	??___flmul
  2371  0496  0828               	movf	??___flmul,w
  2372  0497  00AD               	movwf	___flmul@sign
  2373  0498                     l1573:
  2374  0498  0823               	movf	___flmul@b+3,w
  2375  0499  00A8               	movwf	??___flmul
  2376  049A  0728               	addwf	??___flmul,w
  2377  049B  00A9               	movwf	??___flmul+1
  2378  049C  0829               	movf	??___flmul+1,w
  2379  049D  00B3               	movwf	___flmul@bexp
  2380  049E                     l1575:
  2381  049E  1FA2               	btfss	___flmul@b+2,7
  2382  049F  2CA1               	goto	u1321
  2383  04A0  2CA2               	goto	u1320
  2384  04A1                     u1321:
  2385  04A1  2CA3               	goto	l1579
  2386  04A2                     u1320:
  2387  04A2                     l1577:
  2388  04A2  1433               	bsf	___flmul@bexp,0
  2389  04A3                     l1579:
  2390  04A3  0833               	movf	___flmul@bexp,w
  2391  04A4  1903               	btfsc	3,2
  2392  04A5  2CA7               	goto	u1331
  2393  04A6  2CA8               	goto	u1330
  2394  04A7                     u1331:
  2395  04A7  2CB7               	goto	l1587
  2396  04A8                     u1330:
  2397  04A8                     l1581:
  2398  04A8  0A33               	incf	___flmul@bexp,w
  2399  04A9  1D03               	btfss	3,2
  2400  04AA  2CAC               	goto	u1341
  2401  04AB  2CAD               	goto	u1340
  2402  04AC                     u1341:
  2403  04AC  2CB5               	goto	l1585
  2404  04AD                     u1340:
  2405  04AD                     l1583:
  2406  04AD  3000               	movlw	0
  2407  04AE  00A3               	movwf	___flmul@b+3
  2408  04AF  3000               	movlw	0
  2409  04B0  00A2               	movwf	___flmul@b+2
  2410  04B1  3000               	movlw	0
  2411  04B2  00A1               	movwf	___flmul@b+1
  2412  04B3  3000               	movlw	0
  2413  04B4  00A0               	movwf	___flmul@b
  2414  04B5                     l1585:
  2415  04B5  17A2               	bsf	___flmul@b+2,7
  2416  04B6  2CBF               	goto	l1589
  2417  04B7                     l1587:
  2418  04B7  3000               	movlw	0
  2419  04B8  00A3               	movwf	___flmul@b+3
  2420  04B9  3000               	movlw	0
  2421  04BA  00A2               	movwf	___flmul@b+2
  2422  04BB  3000               	movlw	0
  2423  04BC  00A1               	movwf	___flmul@b+1
  2424  04BD  3000               	movlw	0
  2425  04BE  00A0               	movwf	___flmul@b
  2426  04BF                     l1589:
  2427  04BF  0827               	movf	___flmul@a+3,w
  2428  04C0  3980               	andlw	128
  2429  04C1  00A8               	movwf	??___flmul
  2430  04C2  0828               	movf	??___flmul,w
  2431  04C3  06AD               	xorwf	___flmul@sign,f
  2432  04C4                     l1591:
  2433  04C4  0827               	movf	___flmul@a+3,w
  2434  04C5  00A8               	movwf	??___flmul
  2435  04C6  0728               	addwf	??___flmul,w
  2436  04C7  00A9               	movwf	??___flmul+1
  2437  04C8  0829               	movf	??___flmul+1,w
  2438  04C9  00B2               	movwf	___flmul@aexp
  2439  04CA                     l1593:
  2440  04CA  1FA6               	btfss	___flmul@a+2,7
  2441  04CB  2CCD               	goto	u1351
  2442  04CC  2CCE               	goto	u1350
  2443  04CD                     u1351:
  2444  04CD  2CCF               	goto	l1597
  2445  04CE                     u1350:
  2446  04CE                     l1595:
  2447  04CE  1432               	bsf	___flmul@aexp,0
  2448  04CF                     l1597:
  2449  04CF  0832               	movf	___flmul@aexp,w
  2450  04D0  1903               	btfsc	3,2
  2451  04D1  2CD3               	goto	u1361
  2452  04D2  2CD4               	goto	u1360
  2453  04D3                     u1361:
  2454  04D3  2CE3               	goto	l1605
  2455  04D4                     u1360:
  2456  04D4                     l1599:
  2457  04D4  0A32               	incf	___flmul@aexp,w
  2458  04D5  1D03               	btfss	3,2
  2459  04D6  2CD8               	goto	u1371
  2460  04D7  2CD9               	goto	u1370
  2461  04D8                     u1371:
  2462  04D8  2CE1               	goto	l1603
  2463  04D9                     u1370:
  2464  04D9                     l1601:
  2465  04D9  3000               	movlw	0
  2466  04DA  00A7               	movwf	___flmul@a+3
  2467  04DB  3000               	movlw	0
  2468  04DC  00A6               	movwf	___flmul@a+2
  2469  04DD  3000               	movlw	0
  2470  04DE  00A5               	movwf	___flmul@a+1
  2471  04DF  3000               	movlw	0
  2472  04E0  00A4               	movwf	___flmul@a
  2473  04E1                     l1603:
  2474  04E1  17A6               	bsf	___flmul@a+2,7
  2475  04E2  2CEB               	goto	l1607
  2476  04E3                     l1605:
  2477  04E3  3000               	movlw	0
  2478  04E4  00A7               	movwf	___flmul@a+3
  2479  04E5  3000               	movlw	0
  2480  04E6  00A6               	movwf	___flmul@a+2
  2481  04E7  3000               	movlw	0
  2482  04E8  00A5               	movwf	___flmul@a+1
  2483  04E9  3000               	movlw	0
  2484  04EA  00A4               	movwf	___flmul@a
  2485  04EB                     l1607:
  2486  04EB  0832               	movf	___flmul@aexp,w
  2487  04EC  1903               	btfsc	3,2
  2488  04ED  2CEF               	goto	u1381
  2489  04EE  2CF0               	goto	u1380
  2490  04EF                     u1381:
  2491  04EF  2CF5               	goto	l1611
  2492  04F0                     u1380:
  2493  04F0                     l1609:
  2494  04F0  0833               	movf	___flmul@bexp,w
  2495  04F1  1D03               	btfss	3,2
  2496  04F2  2CF4               	goto	u1391
  2497  04F3  2CF5               	goto	u1390
  2498  04F4                     u1391:
  2499  04F4  2CFE               	goto	l1615
  2500  04F5                     u1390:
  2501  04F5                     l1611:
  2502  04F5  3000               	movlw	0
  2503  04F6  00A3               	movwf	?___flmul+3
  2504  04F7  3000               	movlw	0
  2505  04F8  00A2               	movwf	?___flmul+2
  2506  04F9  3000               	movlw	0
  2507  04FA  00A1               	movwf	?___flmul+1
  2508  04FB  3000               	movlw	0
  2509  04FC  00A0               	movwf	?___flmul
  2510  04FD  2FF1               	goto	l656
  2511  04FE                     l1615:
  2512  04FE  0820               	movf	___flmul@b,w
  2513  04FF  00A8               	movwf	??___flmul
  2514  0500  0828               	movf	??___flmul,w
  2515  0501  00F0               	movwf	__Umul8_16@multiplicand
  2516  0502  0826               	movf	___flmul@a+2,w
  2517  0503  120A  158A  272F  120A  118A  	fcall	__Umul8_16
  2518  0508  0871               	movf	?__Umul8_16+1,w
  2519  0509  1283               	bcf	3,5	;RP0=0, select bank0
  2520  050A  1303               	bcf	3,6	;RP1=0, select bank0
  2521  050B  00B9               	movwf	___flmul@temp+1
  2522  050C  0870               	movf	?__Umul8_16,w
  2523  050D  00B8               	movwf	___flmul@temp
  2524  050E                     l1617:
  2525  050E  0838               	movf	___flmul@temp,w
  2526  050F  00A8               	movwf	??___flmul
  2527  0510  01A9               	clrf	??___flmul+1
  2528  0511  01AA               	clrf	??___flmul+2
  2529  0512  01AB               	clrf	??___flmul+3
  2530  0513  082B               	movf	??___flmul+3,w
  2531  0514  00B1               	movwf	___flmul@grs+3
  2532  0515  082A               	movf	??___flmul+2,w
  2533  0516  00B0               	movwf	___flmul@grs+2
  2534  0517  0829               	movf	??___flmul+1,w
  2535  0518  00AF               	movwf	___flmul@grs+1
  2536  0519  0828               	movf	??___flmul,w
  2537  051A  00AE               	movwf	___flmul@grs
  2538  051B                     l1619:
  2539  051B  0839               	movf	___flmul@temp+1,w
  2540  051C  00A8               	movwf	??___flmul
  2541  051D  01A9               	clrf	??___flmul+1
  2542  051E  01AA               	clrf	??___flmul+2
  2543  051F  01AB               	clrf	??___flmul+3
  2544  0520  082B               	movf	??___flmul+3,w
  2545  0521  00B7               	movwf	___flmul@prod+3
  2546  0522  082A               	movf	??___flmul+2,w
  2547  0523  00B6               	movwf	___flmul@prod+2
  2548  0524  0829               	movf	??___flmul+1,w
  2549  0525  00B5               	movwf	___flmul@prod+1
  2550  0526  0828               	movf	??___flmul,w
  2551  0527  00B4               	movwf	___flmul@prod
  2552  0528  0821               	movf	___flmul@b+1,w
  2553  0529  00A8               	movwf	??___flmul
  2554  052A  0828               	movf	??___flmul,w
  2555  052B  00F0               	movwf	__Umul8_16@multiplicand
  2556  052C  0825               	movf	___flmul@a+1,w
  2557  052D  120A  158A  272F  120A  118A  	fcall	__Umul8_16
  2558  0532  0871               	movf	?__Umul8_16+1,w
  2559  0533  1283               	bcf	3,5	;RP0=0, select bank0
  2560  0534  1303               	bcf	3,6	;RP1=0, select bank0
  2561  0535  00B9               	movwf	___flmul@temp+1
  2562  0536  0870               	movf	?__Umul8_16,w
  2563  0537  00B8               	movwf	___flmul@temp
  2564  0538                     l1621:
  2565  0538  0838               	movf	___flmul@temp,w
  2566  0539  00A8               	movwf	??___flmul
  2567  053A  01A9               	clrf	??___flmul+1
  2568  053B  01AA               	clrf	??___flmul+2
  2569  053C  01AB               	clrf	??___flmul+3
  2570  053D  0828               	movf	??___flmul,w
  2571  053E  07AE               	addwf	___flmul@grs,f
  2572  053F  0829               	movf	??___flmul+1,w
  2573  0540  1103               	clrz
  2574  0541  1803               	skipnc
  2575  0542  3E01               	addlw	1
  2576  0543  1903               	skipnz
  2577  0544  2D46               	goto	u1401
  2578  0545  07AF               	addwf	___flmul@grs+1,f
  2579  0546                     u1401:
  2580  0546  082A               	movf	??___flmul+2,w
  2581  0547  1103               	clrz
  2582  0548  1803               	skipnc
  2583  0549  3E01               	addlw	1
  2584  054A  1903               	skipnz
  2585  054B  2D4D               	goto	u1402
  2586  054C  07B0               	addwf	___flmul@grs+2,f
  2587  054D                     u1402:
  2588  054D  082B               	movf	??___flmul+3,w
  2589  054E  1103               	clrz
  2590  054F  1803               	skipnc
  2591  0550  3E01               	addlw	1
  2592  0551  1903               	skipnz
  2593  0552  2D54               	goto	u1403
  2594  0553  07B1               	addwf	___flmul@grs+3,f
  2595  0554                     u1403:
  2596  0554                     l1623:
  2597  0554  0839               	movf	___flmul@temp+1,w
  2598  0555  00A8               	movwf	??___flmul
  2599  0556  01A9               	clrf	??___flmul+1
  2600  0557  01AA               	clrf	??___flmul+2
  2601  0558  01AB               	clrf	??___flmul+3
  2602  0559  0828               	movf	??___flmul,w
  2603  055A  07B4               	addwf	___flmul@prod,f
  2604  055B  0829               	movf	??___flmul+1,w
  2605  055C  1103               	clrz
  2606  055D  1803               	skipnc
  2607  055E  3E01               	addlw	1
  2608  055F  1903               	skipnz
  2609  0560  2D62               	goto	u1411
  2610  0561  07B5               	addwf	___flmul@prod+1,f
  2611  0562                     u1411:
  2612  0562  082A               	movf	??___flmul+2,w
  2613  0563  1103               	clrz
  2614  0564  1803               	skipnc
  2615  0565  3E01               	addlw	1
  2616  0566  1903               	skipnz
  2617  0567  2D69               	goto	u1412
  2618  0568  07B6               	addwf	___flmul@prod+2,f
  2619  0569                     u1412:
  2620  0569  082B               	movf	??___flmul+3,w
  2621  056A  1103               	clrz
  2622  056B  1803               	skipnc
  2623  056C  3E01               	addlw	1
  2624  056D  1903               	skipnz
  2625  056E  2D70               	goto	u1413
  2626  056F  07B7               	addwf	___flmul@prod+3,f
  2627  0570                     u1413:
  2628  0570  0822               	movf	___flmul@b+2,w
  2629  0571  00A8               	movwf	??___flmul
  2630  0572  0828               	movf	??___flmul,w
  2631  0573  00F0               	movwf	__Umul8_16@multiplicand
  2632  0574  0824               	movf	___flmul@a,w
  2633  0575  120A  158A  272F  120A  118A  	fcall	__Umul8_16
  2634  057A  0871               	movf	?__Umul8_16+1,w
  2635  057B  1283               	bcf	3,5	;RP0=0, select bank0
  2636  057C  1303               	bcf	3,6	;RP1=0, select bank0
  2637  057D  00B9               	movwf	___flmul@temp+1
  2638  057E  0870               	movf	?__Umul8_16,w
  2639  057F  00B8               	movwf	___flmul@temp
  2640  0580                     l1625:
  2641  0580  0838               	movf	___flmul@temp,w
  2642  0581  00A8               	movwf	??___flmul
  2643  0582  01A9               	clrf	??___flmul+1
  2644  0583  01AA               	clrf	??___flmul+2
  2645  0584  01AB               	clrf	??___flmul+3
  2646  0585  0828               	movf	??___flmul,w
  2647  0586  07AE               	addwf	___flmul@grs,f
  2648  0587  0829               	movf	??___flmul+1,w
  2649  0588  1103               	clrz
  2650  0589  1803               	skipnc
  2651  058A  3E01               	addlw	1
  2652  058B  1903               	skipnz
  2653  058C  2D8E               	goto	u1421
  2654  058D  07AF               	addwf	___flmul@grs+1,f
  2655  058E                     u1421:
  2656  058E  082A               	movf	??___flmul+2,w
  2657  058F  1103               	clrz
  2658  0590  1803               	skipnc
  2659  0591  3E01               	addlw	1
  2660  0592  1903               	skipnz
  2661  0593  2D95               	goto	u1422
  2662  0594  07B0               	addwf	___flmul@grs+2,f
  2663  0595                     u1422:
  2664  0595  082B               	movf	??___flmul+3,w
  2665  0596  1103               	clrz
  2666  0597  1803               	skipnc
  2667  0598  3E01               	addlw	1
  2668  0599  1903               	skipnz
  2669  059A  2D9C               	goto	u1423
  2670  059B  07B1               	addwf	___flmul@grs+3,f
  2671  059C                     u1423:
  2672  059C                     l1627:
  2673  059C  0839               	movf	___flmul@temp+1,w
  2674  059D  00A8               	movwf	??___flmul
  2675  059E  01A9               	clrf	??___flmul+1
  2676  059F  01AA               	clrf	??___flmul+2
  2677  05A0  01AB               	clrf	??___flmul+3
  2678  05A1  0828               	movf	??___flmul,w
  2679  05A2  07B4               	addwf	___flmul@prod,f
  2680  05A3  0829               	movf	??___flmul+1,w
  2681  05A4  1103               	clrz
  2682  05A5  1803               	skipnc
  2683  05A6  3E01               	addlw	1
  2684  05A7  1903               	skipnz
  2685  05A8  2DAA               	goto	u1431
  2686  05A9  07B5               	addwf	___flmul@prod+1,f
  2687  05AA                     u1431:
  2688  05AA  082A               	movf	??___flmul+2,w
  2689  05AB  1103               	clrz
  2690  05AC  1803               	skipnc
  2691  05AD  3E01               	addlw	1
  2692  05AE  1903               	skipnz
  2693  05AF  2DB1               	goto	u1432
  2694  05B0  07B6               	addwf	___flmul@prod+2,f
  2695  05B1                     u1432:
  2696  05B1  082B               	movf	??___flmul+3,w
  2697  05B2  1103               	clrz
  2698  05B3  1803               	skipnc
  2699  05B4  3E01               	addlw	1
  2700  05B5  1903               	skipnz
  2701  05B6  2DB8               	goto	u1433
  2702  05B7  07B7               	addwf	___flmul@prod+3,f
  2703  05B8                     u1433:
  2704  05B8                     l1629:
  2705  05B8  3008               	movlw	8
  2706  05B9  00A8               	movwf	??___flmul
  2707  05BA                     u1445:
  2708  05BA  1003               	clrc
  2709  05BB  0DAE               	rlf	___flmul@grs,f
  2710  05BC  0DAF               	rlf	___flmul@grs+1,f
  2711  05BD  0DB0               	rlf	___flmul@grs+2,f
  2712  05BE  0DB1               	rlf	___flmul@grs+3,f
  2713  05BF  0BA8               	decfsz	??___flmul,f
  2714  05C0  2DBA               	goto	u1445
  2715  05C1                     l1631:
  2716  05C1  0821               	movf	___flmul@b+1,w
  2717  05C2  00A8               	movwf	??___flmul
  2718  05C3  0828               	movf	??___flmul,w
  2719  05C4  00F0               	movwf	__Umul8_16@multiplicand
  2720  05C5  0824               	movf	___flmul@a,w
  2721  05C6  120A  158A  272F  120A  118A  	fcall	__Umul8_16
  2722  05CB  0871               	movf	?__Umul8_16+1,w
  2723  05CC  1283               	bcf	3,5	;RP0=0, select bank0
  2724  05CD  1303               	bcf	3,6	;RP1=0, select bank0
  2725  05CE  00B9               	movwf	___flmul@temp+1
  2726  05CF  0870               	movf	?__Umul8_16,w
  2727  05D0  00B8               	movwf	___flmul@temp
  2728  05D1                     l1633:
  2729  05D1  0838               	movf	___flmul@temp,w
  2730  05D2  00A8               	movwf	??___flmul
  2731  05D3  0839               	movf	___flmul@temp+1,w
  2732  05D4  00A9               	movwf	??___flmul+1
  2733  05D5  01AA               	clrf	??___flmul+2
  2734  05D6  01AB               	clrf	??___flmul+3
  2735  05D7  0828               	movf	??___flmul,w
  2736  05D8  07AE               	addwf	___flmul@grs,f
  2737  05D9  0829               	movf	??___flmul+1,w
  2738  05DA  1103               	clrz
  2739  05DB  1803               	skipnc
  2740  05DC  3E01               	addlw	1
  2741  05DD  1903               	skipnz
  2742  05DE  2DE0               	goto	u1451
  2743  05DF  07AF               	addwf	___flmul@grs+1,f
  2744  05E0                     u1451:
  2745  05E0  082A               	movf	??___flmul+2,w
  2746  05E1  1103               	clrz
  2747  05E2  1803               	skipnc
  2748  05E3  3E01               	addlw	1
  2749  05E4  1903               	skipnz
  2750  05E5  2DE7               	goto	u1452
  2751  05E6  07B0               	addwf	___flmul@grs+2,f
  2752  05E7                     u1452:
  2753  05E7  082B               	movf	??___flmul+3,w
  2754  05E8  1103               	clrz
  2755  05E9  1803               	skipnc
  2756  05EA  3E01               	addlw	1
  2757  05EB  1903               	skipnz
  2758  05EC  2DEE               	goto	u1453
  2759  05ED  07B1               	addwf	___flmul@grs+3,f
  2760  05EE                     u1453:
  2761  05EE                     l1635:
  2762  05EE  0820               	movf	___flmul@b,w
  2763  05EF  00A8               	movwf	??___flmul
  2764  05F0  0828               	movf	??___flmul,w
  2765  05F1  00F0               	movwf	__Umul8_16@multiplicand
  2766  05F2  0825               	movf	___flmul@a+1,w
  2767  05F3  120A  158A  272F  120A  118A  	fcall	__Umul8_16
  2768  05F8  0871               	movf	?__Umul8_16+1,w
  2769  05F9  1283               	bcf	3,5	;RP0=0, select bank0
  2770  05FA  1303               	bcf	3,6	;RP1=0, select bank0
  2771  05FB  00B9               	movwf	___flmul@temp+1
  2772  05FC  0870               	movf	?__Umul8_16,w
  2773  05FD  00B8               	movwf	___flmul@temp
  2774  05FE                     l1637:
  2775  05FE  0838               	movf	___flmul@temp,w
  2776  05FF  00A8               	movwf	??___flmul
  2777  0600  0839               	movf	___flmul@temp+1,w
  2778  0601  00A9               	movwf	??___flmul+1
  2779  0602  01AA               	clrf	??___flmul+2
  2780  0603  01AB               	clrf	??___flmul+3
  2781  0604  0828               	movf	??___flmul,w
  2782  0605  07AE               	addwf	___flmul@grs,f
  2783  0606  0829               	movf	??___flmul+1,w
  2784  0607  1103               	clrz
  2785  0608  1803               	skipnc
  2786  0609  3E01               	addlw	1
  2787  060A  1903               	skipnz
  2788  060B  2E0D               	goto	u1461
  2789  060C  07AF               	addwf	___flmul@grs+1,f
  2790  060D                     u1461:
  2791  060D  082A               	movf	??___flmul+2,w
  2792  060E  1103               	clrz
  2793  060F  1803               	skipnc
  2794  0610  3E01               	addlw	1
  2795  0611  1903               	skipnz
  2796  0612  2E14               	goto	u1462
  2797  0613  07B0               	addwf	___flmul@grs+2,f
  2798  0614                     u1462:
  2799  0614  082B               	movf	??___flmul+3,w
  2800  0615  1103               	clrz
  2801  0616  1803               	skipnc
  2802  0617  3E01               	addlw	1
  2803  0618  1903               	skipnz
  2804  0619  2E1B               	goto	u1463
  2805  061A  07B1               	addwf	___flmul@grs+3,f
  2806  061B                     u1463:
  2807  061B                     l1639:
  2808  061B  3008               	movlw	8
  2809  061C  00A8               	movwf	??___flmul
  2810  061D                     u1475:
  2811  061D  1003               	clrc
  2812  061E  0DAE               	rlf	___flmul@grs,f
  2813  061F  0DAF               	rlf	___flmul@grs+1,f
  2814  0620  0DB0               	rlf	___flmul@grs+2,f
  2815  0621  0DB1               	rlf	___flmul@grs+3,f
  2816  0622  0BA8               	decfsz	??___flmul,f
  2817  0623  2E1D               	goto	u1475
  2818  0624  0820               	movf	___flmul@b,w
  2819  0625  00A8               	movwf	??___flmul
  2820  0626  0828               	movf	??___flmul,w
  2821  0627  00F0               	movwf	__Umul8_16@multiplicand
  2822  0628  0824               	movf	___flmul@a,w
  2823  0629  120A  158A  272F  120A  118A  	fcall	__Umul8_16
  2824  062E  0871               	movf	?__Umul8_16+1,w
  2825  062F  1283               	bcf	3,5	;RP0=0, select bank0
  2826  0630  1303               	bcf	3,6	;RP1=0, select bank0
  2827  0631  00B9               	movwf	___flmul@temp+1
  2828  0632  0870               	movf	?__Umul8_16,w
  2829  0633  00B8               	movwf	___flmul@temp
  2830  0634                     l1641:
  2831  0634  0838               	movf	___flmul@temp,w
  2832  0635  00A8               	movwf	??___flmul
  2833  0636  0839               	movf	___flmul@temp+1,w
  2834  0637  00A9               	movwf	??___flmul+1
  2835  0638  01AA               	clrf	??___flmul+2
  2836  0639  01AB               	clrf	??___flmul+3
  2837  063A  0828               	movf	??___flmul,w
  2838  063B  07AE               	addwf	___flmul@grs,f
  2839  063C  0829               	movf	??___flmul+1,w
  2840  063D  1103               	clrz
  2841  063E  1803               	skipnc
  2842  063F  3E01               	addlw	1
  2843  0640  1903               	skipnz
  2844  0641  2E43               	goto	u1481
  2845  0642  07AF               	addwf	___flmul@grs+1,f
  2846  0643                     u1481:
  2847  0643  082A               	movf	??___flmul+2,w
  2848  0644  1103               	clrz
  2849  0645  1803               	skipnc
  2850  0646  3E01               	addlw	1
  2851  0647  1903               	skipnz
  2852  0648  2E4A               	goto	u1482
  2853  0649  07B0               	addwf	___flmul@grs+2,f
  2854  064A                     u1482:
  2855  064A  082B               	movf	??___flmul+3,w
  2856  064B  1103               	clrz
  2857  064C  1803               	skipnc
  2858  064D  3E01               	addlw	1
  2859  064E  1903               	skipnz
  2860  064F  2E51               	goto	u1483
  2861  0650  07B1               	addwf	___flmul@grs+3,f
  2862  0651                     u1483:
  2863  0651                     l1643:
  2864  0651  0821               	movf	___flmul@b+1,w
  2865  0652  00A8               	movwf	??___flmul
  2866  0653  0828               	movf	??___flmul,w
  2867  0654  00F0               	movwf	__Umul8_16@multiplicand
  2868  0655  0826               	movf	___flmul@a+2,w
  2869  0656  120A  158A  272F  120A  118A  	fcall	__Umul8_16
  2870  065B  0871               	movf	?__Umul8_16+1,w
  2871  065C  1283               	bcf	3,5	;RP0=0, select bank0
  2872  065D  1303               	bcf	3,6	;RP1=0, select bank0
  2873  065E  00B9               	movwf	___flmul@temp+1
  2874  065F  0870               	movf	?__Umul8_16,w
  2875  0660  00B8               	movwf	___flmul@temp
  2876  0661  0838               	movf	___flmul@temp,w
  2877  0662  00A8               	movwf	??___flmul
  2878  0663  0839               	movf	___flmul@temp+1,w
  2879  0664  00A9               	movwf	??___flmul+1
  2880  0665  01AA               	clrf	??___flmul+2
  2881  0666  01AB               	clrf	??___flmul+3
  2882  0667  0828               	movf	??___flmul,w
  2883  0668  07B4               	addwf	___flmul@prod,f
  2884  0669  0829               	movf	??___flmul+1,w
  2885  066A  1103               	clrz
  2886  066B  1803               	skipnc
  2887  066C  3E01               	addlw	1
  2888  066D  1903               	skipnz
  2889  066E  2E70               	goto	u1491
  2890  066F  07B5               	addwf	___flmul@prod+1,f
  2891  0670                     u1491:
  2892  0670  082A               	movf	??___flmul+2,w
  2893  0671  1103               	clrz
  2894  0672  1803               	skipnc
  2895  0673  3E01               	addlw	1
  2896  0674  1903               	skipnz
  2897  0675  2E77               	goto	u1492
  2898  0676  07B6               	addwf	___flmul@prod+2,f
  2899  0677                     u1492:
  2900  0677  082B               	movf	??___flmul+3,w
  2901  0678  1103               	clrz
  2902  0679  1803               	skipnc
  2903  067A  3E01               	addlw	1
  2904  067B  1903               	skipnz
  2905  067C  2E7E               	goto	u1493
  2906  067D  07B7               	addwf	___flmul@prod+3,f
  2907  067E                     u1493:
  2908  067E                     l1645:
  2909  067E  0822               	movf	___flmul@b+2,w
  2910  067F  00A8               	movwf	??___flmul
  2911  0680  0828               	movf	??___flmul,w
  2912  0681  00F0               	movwf	__Umul8_16@multiplicand
  2913  0682  0825               	movf	___flmul@a+1,w
  2914  0683  120A  158A  272F  120A  118A  	fcall	__Umul8_16
  2915  0688  0871               	movf	?__Umul8_16+1,w
  2916  0689  1283               	bcf	3,5	;RP0=0, select bank0
  2917  068A  1303               	bcf	3,6	;RP1=0, select bank0
  2918  068B  00B9               	movwf	___flmul@temp+1
  2919  068C  0870               	movf	?__Umul8_16,w
  2920  068D  00B8               	movwf	___flmul@temp
  2921  068E                     l1647:
  2922  068E  0838               	movf	___flmul@temp,w
  2923  068F  00A8               	movwf	??___flmul
  2924  0690  0839               	movf	___flmul@temp+1,w
  2925  0691  00A9               	movwf	??___flmul+1
  2926  0692  01AA               	clrf	??___flmul+2
  2927  0693  01AB               	clrf	??___flmul+3
  2928  0694  0828               	movf	??___flmul,w
  2929  0695  07B4               	addwf	___flmul@prod,f
  2930  0696  0829               	movf	??___flmul+1,w
  2931  0697  1103               	clrz
  2932  0698  1803               	skipnc
  2933  0699  3E01               	addlw	1
  2934  069A  1903               	skipnz
  2935  069B  2E9D               	goto	u1501
  2936  069C  07B5               	addwf	___flmul@prod+1,f
  2937  069D                     u1501:
  2938  069D  082A               	movf	??___flmul+2,w
  2939  069E  1103               	clrz
  2940  069F  1803               	skipnc
  2941  06A0  3E01               	addlw	1
  2942  06A1  1903               	skipnz
  2943  06A2  2EA4               	goto	u1502
  2944  06A3  07B6               	addwf	___flmul@prod+2,f
  2945  06A4                     u1502:
  2946  06A4  082B               	movf	??___flmul+3,w
  2947  06A5  1103               	clrz
  2948  06A6  1803               	skipnc
  2949  06A7  3E01               	addlw	1
  2950  06A8  1903               	skipnz
  2951  06A9  2EAB               	goto	u1503
  2952  06AA  07B7               	addwf	___flmul@prod+3,f
  2953  06AB                     u1503:
  2954  06AB  0822               	movf	___flmul@b+2,w
  2955  06AC  00A8               	movwf	??___flmul
  2956  06AD  0828               	movf	??___flmul,w
  2957  06AE  00F0               	movwf	__Umul8_16@multiplicand
  2958  06AF  0826               	movf	___flmul@a+2,w
  2959  06B0  120A  158A  272F  120A  118A  	fcall	__Umul8_16
  2960  06B5  0871               	movf	?__Umul8_16+1,w
  2961  06B6  1283               	bcf	3,5	;RP0=0, select bank0
  2962  06B7  1303               	bcf	3,6	;RP1=0, select bank0
  2963  06B8  00B9               	movwf	___flmul@temp+1
  2964  06B9  0870               	movf	?__Umul8_16,w
  2965  06BA  00B8               	movwf	___flmul@temp
  2966  06BB                     l1649:
  2967  06BB  0838               	movf	___flmul@temp,w
  2968  06BC  00A8               	movwf	??___flmul
  2969  06BD  0839               	movf	___flmul@temp+1,w
  2970  06BE  00A9               	movwf	??___flmul+1
  2971  06BF  01AA               	clrf	??___flmul+2
  2972  06C0  01AB               	clrf	??___flmul+3
  2973  06C1  3008               	movlw	8
  2974  06C2                     u1515:
  2975  06C2  1003               	clrc
  2976  06C3  0DA8               	rlf	??___flmul,f
  2977  06C4  0DA9               	rlf	??___flmul+1,f
  2978  06C5  0DAA               	rlf	??___flmul+2,f
  2979  06C6  0DAB               	rlf	??___flmul+3,f
  2980  06C7                     u1510:
  2981  06C7  3EFF               	addlw	-1
  2982  06C8  1D03               	skipz
  2983  06C9  2EC2               	goto	u1515
  2984  06CA  0828               	movf	??___flmul,w
  2985  06CB  07B4               	addwf	___flmul@prod,f
  2986  06CC  0829               	movf	??___flmul+1,w
  2987  06CD  1103               	clrz
  2988  06CE  1803               	skipnc
  2989  06CF  3E01               	addlw	1
  2990  06D0  1903               	skipnz
  2991  06D1  2ED3               	goto	u1521
  2992  06D2  07B5               	addwf	___flmul@prod+1,f
  2993  06D3                     u1521:
  2994  06D3  082A               	movf	??___flmul+2,w
  2995  06D4  1103               	clrz
  2996  06D5  1803               	skipnc
  2997  06D6  3E01               	addlw	1
  2998  06D7  1903               	skipnz
  2999  06D8  2EDA               	goto	u1522
  3000  06D9  07B6               	addwf	___flmul@prod+2,f
  3001  06DA                     u1522:
  3002  06DA  082B               	movf	??___flmul+3,w
  3003  06DB  1103               	clrz
  3004  06DC  1803               	skipnc
  3005  06DD  3E01               	addlw	1
  3006  06DE  1903               	skipnz
  3007  06DF  2EE1               	goto	u1523
  3008  06E0  07B7               	addwf	___flmul@prod+3,f
  3009  06E1                     u1523:
  3010  06E1                     l1651:
  3011  06E1  082E               	movf	___flmul@grs,w
  3012  06E2  00A8               	movwf	??___flmul
  3013  06E3  082F               	movf	___flmul@grs+1,w
  3014  06E4  00A9               	movwf	??___flmul+1
  3015  06E5  0830               	movf	___flmul@grs+2,w
  3016  06E6  00AA               	movwf	??___flmul+2
  3017  06E7  0831               	movf	___flmul@grs+3,w
  3018  06E8  00AB               	movwf	??___flmul+3
  3019  06E9  3018               	movlw	24
  3020  06EA                     u1535:
  3021  06EA  1003               	clrc
  3022  06EB  0CAB               	rrf	??___flmul+3,f
  3023  06EC  0CAA               	rrf	??___flmul+2,f
  3024  06ED  0CA9               	rrf	??___flmul+1,f
  3025  06EE  0CA8               	rrf	??___flmul,f
  3026  06EF                     u1530:
  3027  06EF  3EFF               	addlw	-1
  3028  06F0  1D03               	skipz
  3029  06F1  2EEA               	goto	u1535
  3030  06F2  0828               	movf	??___flmul,w
  3031  06F3  07B4               	addwf	___flmul@prod,f
  3032  06F4  0829               	movf	??___flmul+1,w
  3033  06F5  1103               	clrz
  3034  06F6  1803               	skipnc
  3035  06F7  3E01               	addlw	1
  3036  06F8  1903               	skipnz
  3037  06F9  2EFB               	goto	u1541
  3038  06FA  07B5               	addwf	___flmul@prod+1,f
  3039  06FB                     u1541:
  3040  06FB  082A               	movf	??___flmul+2,w
  3041  06FC  1103               	clrz
  3042  06FD  1803               	skipnc
  3043  06FE  3E01               	addlw	1
  3044  06FF  1903               	skipnz
  3045  0700  2F02               	goto	u1542
  3046  0701  07B6               	addwf	___flmul@prod+2,f
  3047  0702                     u1542:
  3048  0702  082B               	movf	??___flmul+3,w
  3049  0703  1103               	clrz
  3050  0704  1803               	skipnc
  3051  0705  3E01               	addlw	1
  3052  0706  1903               	skipnz
  3053  0707  2F09               	goto	u1543
  3054  0708  07B7               	addwf	___flmul@prod+3,f
  3055  0709                     u1543:
  3056  0709                     l1653:
  3057  0709  3008               	movlw	8
  3058  070A  00A8               	movwf	??___flmul
  3059  070B                     u1555:
  3060  070B  1003               	clrc
  3061  070C  0DAE               	rlf	___flmul@grs,f
  3062  070D  0DAF               	rlf	___flmul@grs+1,f
  3063  070E  0DB0               	rlf	___flmul@grs+2,f
  3064  070F  0DB1               	rlf	___flmul@grs+3,f
  3065  0710  0BA8               	decfsz	??___flmul,f
  3066  0711  2F0B               	goto	u1555
  3067  0712                     l1655:
  3068  0712  0833               	movf	___flmul@bexp,w
  3069  0713  0732               	addwf	___flmul@aexp,w
  3070  0714  00A8               	movwf	??___flmul
  3071  0715  01A9               	clrf	??___flmul+1
  3072  0716  0DA9               	rlf	??___flmul+1,f
  3073  0717  0828               	movf	??___flmul,w
  3074  0718  3E82               	addlw	130
  3075  0719  00B8               	movwf	___flmul@temp
  3076  071A  0829               	movf	??___flmul+1,w
  3077  071B  1803               	skipnc
  3078  071C  3E01               	addlw	1
  3079  071D  3EFF               	addlw	255
  3080  071E  00B9               	movwf	___flmul@temp+1
  3081  071F  2F3D               	goto	l1667
  3082  0720                     l1657:
  3083  0720  3001               	movlw	1
  3084  0721  00A8               	movwf	??___flmul
  3085  0722                     u1565:
  3086  0722  1003               	clrc
  3087  0723  0DB4               	rlf	___flmul@prod,f
  3088  0724  0DB5               	rlf	___flmul@prod+1,f
  3089  0725  0DB6               	rlf	___flmul@prod+2,f
  3090  0726  0DB7               	rlf	___flmul@prod+3,f
  3091  0727  0BA8               	decfsz	??___flmul,f
  3092  0728  2F22               	goto	u1565
  3093  0729                     l1659:
  3094  0729  1FB1               	btfss	___flmul@grs+3,7
  3095  072A  2F2C               	goto	u1571
  3096  072B  2F2D               	goto	u1570
  3097  072C                     u1571:
  3098  072C  2F2E               	goto	l1663
  3099  072D                     u1570:
  3100  072D                     l1661:
  3101  072D  1434               	bsf	___flmul@prod,0
  3102  072E                     l1663:
  3103  072E  3001               	movlw	1
  3104  072F  00A8               	movwf	??___flmul
  3105  0730                     u1585:
  3106  0730  1003               	clrc
  3107  0731  0DAE               	rlf	___flmul@grs,f
  3108  0732  0DAF               	rlf	___flmul@grs+1,f
  3109  0733  0DB0               	rlf	___flmul@grs+2,f
  3110  0734  0DB1               	rlf	___flmul@grs+3,f
  3111  0735  0BA8               	decfsz	??___flmul,f
  3112  0736  2F30               	goto	u1585
  3113  0737                     l1665:
  3114  0737  30FF               	movlw	255
  3115  0738  07B8               	addwf	___flmul@temp,f
  3116  0739  1803               	skipnc
  3117  073A  0AB9               	incf	___flmul@temp+1,f
  3118  073B  30FF               	movlw	255
  3119  073C  07B9               	addwf	___flmul@temp+1,f
  3120  073D                     l1667:
  3121  073D  1FB6               	btfss	___flmul@prod+2,7
  3122  073E  2F40               	goto	u1591
  3123  073F  2F41               	goto	u1590
  3124  0740                     u1591:
  3125  0740  2F20               	goto	l1657
  3126  0741                     u1590:
  3127  0741                     l1669:
  3128  0741  01B2               	clrf	___flmul@aexp
  3129  0742                     l1671:
  3130  0742  1FB1               	btfss	___flmul@grs+3,7
  3131  0743  2F45               	goto	u1601
  3132  0744  2F46               	goto	u1600
  3133  0745                     u1601:
  3134  0745  2F62               	goto	l1679
  3135  0746                     u1600:
  3136  0746                     l1673:
  3137  0746  30FF               	movlw	255
  3138  0747  052E               	andwf	___flmul@grs,w
  3139  0748  00A8               	movwf	??___flmul
  3140  0749  30FF               	movlw	255
  3141  074A  052F               	andwf	___flmul@grs+1,w
  3142  074B  00A9               	movwf	??___flmul+1
  3143  074C  30FF               	movlw	255
  3144  074D  0530               	andwf	___flmul@grs+2,w
  3145  074E  00AA               	movwf	??___flmul+2
  3146  074F  307F               	movlw	127
  3147  0750  0531               	andwf	___flmul@grs+3,w
  3148  0751  00AB               	movwf	??___flmul+3
  3149  0752  082B               	movf	??___flmul+3,w
  3150  0753  042A               	iorwf	??___flmul+2,w
  3151  0754  0429               	iorwf	??___flmul+1,w
  3152  0755  0428               	iorwf	??___flmul,w
  3153  0756  1903               	skipnz
  3154  0757  2F59               	goto	u1611
  3155  0758  2F5A               	goto	u1610
  3156  0759                     u1611:
  3157  0759  2F5D               	goto	l662
  3158  075A                     u1610:
  3159  075A                     l1675:
  3160  075A  01B2               	clrf	___flmul@aexp
  3161  075B  0AB2               	incf	___flmul@aexp,f
  3162  075C  2F62               	goto	l1679
  3163  075D                     l662:
  3164  075D  1C34               	btfss	___flmul@prod,0
  3165  075E  2F60               	goto	u1621
  3166  075F  2F61               	goto	u1620
  3167  0760                     u1621:
  3168  0760  2F62               	goto	l1679
  3169  0761                     u1620:
  3170  0761  2F5A               	goto	l1675
  3171  0762                     l1679:
  3172  0762  0832               	movf	___flmul@aexp,w
  3173  0763  1903               	btfsc	3,2
  3174  0764  2F66               	goto	u1631
  3175  0765  2F67               	goto	u1630
  3176  0766                     u1631:
  3177  0766  2F98               	goto	l1689
  3178  0767                     u1630:
  3179  0767                     l1681:
  3180  0767  3001               	movlw	1
  3181  0768  07B4               	addwf	___flmul@prod,f
  3182  0769  3000               	movlw	0
  3183  076A  1803               	skipnc
  3184  076B  3001               	movlw	1
  3185  076C  07B5               	addwf	___flmul@prod+1,f
  3186  076D  3000               	movlw	0
  3187  076E  1803               	skipnc
  3188  076F  3001               	movlw	1
  3189  0770  07B6               	addwf	___flmul@prod+2,f
  3190  0771  3000               	movlw	0
  3191  0772  1803               	skipnc
  3192  0773  3001               	movlw	1
  3193  0774  07B7               	addwf	___flmul@prod+3,f
  3194  0775                     l1683:
  3195  0775  1C37               	btfss	___flmul@prod+3,0
  3196  0776  2F78               	goto	u1641
  3197  0777  2F79               	goto	u1640
  3198  0778                     u1641:
  3199  0778  2F98               	goto	l1689
  3200  0779                     u1640:
  3201  0779                     l1685:
  3202  0779  0834               	movf	___flmul@prod,w
  3203  077A  00A8               	movwf	??___flmul
  3204  077B  0835               	movf	___flmul@prod+1,w
  3205  077C  00A9               	movwf	??___flmul+1
  3206  077D  0836               	movf	___flmul@prod+2,w
  3207  077E  00AA               	movwf	??___flmul+2
  3208  077F  0837               	movf	___flmul@prod+3,w
  3209  0780  00AB               	movwf	??___flmul+3
  3210  0781  3001               	movlw	1
  3211  0782  00AC               	movwf	??___flmul+4
  3212  0783                     u1655:
  3213  0783  0D2B               	rlf	??___flmul+3,w
  3214  0784  0CAB               	rrf	??___flmul+3,f
  3215  0785  0CAA               	rrf	??___flmul+2,f
  3216  0786  0CA9               	rrf	??___flmul+1,f
  3217  0787  0CA8               	rrf	??___flmul,f
  3218  0788                     u1650:
  3219  0788  0BAC               	decfsz	??___flmul+4,f
  3220  0789  2F83               	goto	u1655
  3221  078A  082B               	movf	??___flmul+3,w
  3222  078B  00B7               	movwf	___flmul@prod+3
  3223  078C  082A               	movf	??___flmul+2,w
  3224  078D  00B6               	movwf	___flmul@prod+2
  3225  078E  0829               	movf	??___flmul+1,w
  3226  078F  00B5               	movwf	___flmul@prod+1
  3227  0790  0828               	movf	??___flmul,w
  3228  0791  00B4               	movwf	___flmul@prod
  3229  0792                     l1687:
  3230  0792  3001               	movlw	1
  3231  0793  07B8               	addwf	___flmul@temp,f
  3232  0794  1803               	skipnc
  3233  0795  0AB9               	incf	___flmul@temp+1,f
  3234  0796  3000               	movlw	0
  3235  0797  07B9               	addwf	___flmul@temp+1,f
  3236  0798                     l1689:
  3237  0798  0839               	movf	___flmul@temp+1,w
  3238  0799  3A80               	xorlw	128
  3239  079A  00FF               	movwf	btemp+1
  3240  079B  3080               	movlw	128
  3241  079C  027F               	subwf	btemp+1,w
  3242  079D  1D03               	skipz
  3243  079E  2FA1               	goto	u1665
  3244  079F  30FF               	movlw	255
  3245  07A0  0238               	subwf	___flmul@temp,w
  3246  07A1                     u1665:
  3247  07A1  1C03               	skipc
  3248  07A2  2FA4               	goto	u1661
  3249  07A3  2FA5               	goto	u1660
  3250  07A4                     u1661:
  3251  07A4  2FB0               	goto	l1693
  3252  07A5                     u1660:
  3253  07A5                     l1691:
  3254  07A5  307F               	movlw	127
  3255  07A6  1283               	bcf	3,5	;RP0=0, select bank0
  3256  07A7  1303               	bcf	3,6	;RP1=0, select bank0
  3257  07A8  00B7               	movwf	___flmul@prod+3
  3258  07A9  3080               	movlw	128
  3259  07AA  00B6               	movwf	___flmul@prod+2
  3260  07AB  3000               	movlw	0
  3261  07AC  00B5               	movwf	___flmul@prod+1
  3262  07AD  3000               	movlw	0
  3263  07AE  00B4               	movwf	___flmul@prod
  3264  07AF  2FE5               	goto	l668
  3265  07B0                     l1693:
  3266  07B0  1283               	bcf	3,5	;RP0=0, select bank0
  3267  07B1  1303               	bcf	3,6	;RP1=0, select bank0
  3268  07B2  0839               	movf	___flmul@temp+1,w
  3269  07B3  3A80               	xorlw	128
  3270  07B4  00FF               	movwf	btemp+1
  3271  07B5  3080               	movlw	128
  3272  07B6  027F               	subwf	btemp+1,w
  3273  07B7  1D03               	skipz
  3274  07B8  2FBB               	goto	u1675
  3275  07B9  3001               	movlw	1
  3276  07BA  0238               	subwf	___flmul@temp,w
  3277  07BB                     u1675:
  3278  07BB  1803               	skipnc
  3279  07BC  2FBE               	goto	u1671
  3280  07BD  2FBF               	goto	u1670
  3281  07BE                     u1671:
  3282  07BE  2FCB               	goto	l1699
  3283  07BF                     u1670:
  3284  07BF                     l1695:
  3285  07BF  3000               	movlw	0
  3286  07C0  1283               	bcf	3,5	;RP0=0, select bank0
  3287  07C1  1303               	bcf	3,6	;RP1=0, select bank0
  3288  07C2  00B7               	movwf	___flmul@prod+3
  3289  07C3  3000               	movlw	0
  3290  07C4  00B6               	movwf	___flmul@prod+2
  3291  07C5  3000               	movlw	0
  3292  07C6  00B5               	movwf	___flmul@prod+1
  3293  07C7  3000               	movlw	0
  3294  07C8  00B4               	movwf	___flmul@prod
  3295  07C9                     l1697:
  3296  07C9  01AD               	clrf	___flmul@sign
  3297  07CA  2FE5               	goto	l668
  3298  07CB                     l1699:
  3299  07CB  1283               	bcf	3,5	;RP0=0, select bank0
  3300  07CC  1303               	bcf	3,6	;RP1=0, select bank0
  3301  07CD  0838               	movf	___flmul@temp,w
  3302  07CE  00A8               	movwf	??___flmul
  3303  07CF  0828               	movf	??___flmul,w
  3304  07D0  00B3               	movwf	___flmul@bexp
  3305  07D1  30FF               	movlw	255
  3306  07D2  05B4               	andwf	___flmul@prod,f
  3307  07D3  30FF               	movlw	255
  3308  07D4  05B5               	andwf	___flmul@prod+1,f
  3309  07D5  307F               	movlw	127
  3310  07D6  05B6               	andwf	___flmul@prod+2,f
  3311  07D7  3000               	movlw	0
  3312  07D8  05B7               	andwf	___flmul@prod+3,f
  3313  07D9                     l1701:
  3314  07D9  1C33               	btfss	___flmul@bexp,0
  3315  07DA  2FDC               	goto	u1681
  3316  07DB  2FDD               	goto	u1680
  3317  07DC                     u1681:
  3318  07DC  2FDE               	goto	l1705
  3319  07DD                     u1680:
  3320  07DD                     l1703:
  3321  07DD  17B6               	bsf	___flmul@prod+2,7
  3322  07DE                     l1705:
  3323  07DE  0833               	movf	___flmul@bexp,w
  3324  07DF  00A8               	movwf	??___flmul
  3325  07E0  1003               	clrc
  3326  07E1  0C28               	rrf	??___flmul,w
  3327  07E2  00A9               	movwf	??___flmul+1
  3328  07E3  0829               	movf	??___flmul+1,w
  3329  07E4  00B7               	movwf	___flmul@prod+3
  3330  07E5                     l668:
  3331  07E5  082D               	movf	___flmul@sign,w
  3332  07E6  00A8               	movwf	??___flmul
  3333  07E7  0828               	movf	??___flmul,w
  3334  07E8  04B7               	iorwf	___flmul@prod+3,f
  3335  07E9                     l1707:
  3336  07E9  0837               	movf	___flmul@prod+3,w
  3337  07EA  00A3               	movwf	?___flmul+3
  3338  07EB  0836               	movf	___flmul@prod+2,w
  3339  07EC  00A2               	movwf	?___flmul+2
  3340  07ED  0835               	movf	___flmul@prod+1,w
  3341  07EE  00A1               	movwf	?___flmul+1
  3342  07EF  0834               	movf	___flmul@prod,w
  3343  07F0  00A0               	movwf	?___flmul
  3344  07F1                     l656:
  3345  07F1  0008               	return
  3346  07F2                     __end_of___flmul:
  3347                           
  3348                           	psect	text10
  3349  0F2F                     __ptext10:	
  3350 ;; *************** function __Umul8_16 *****************
  3351 ;; Defined at:
  3352 ;;		line 4 in file "C:\Program Files\Microchip\xc8\v2.32\pic\sources\c90\common\Umul8_16.c"
  3353 ;; Parameters:    Size  Location     Type
  3354 ;;  multiplier      1    wreg     unsigned char 
  3355 ;;  multiplicand    1    0[COMMON] unsigned char 
  3356 ;; Auto vars:     Size  Location     Type
  3357 ;;  multiplier      1    8[COMMON] unsigned char 
  3358 ;;  word_mpld       2    6[COMMON] unsigned int 
  3359 ;;  product         2    4[COMMON] unsigned int 
  3360 ;; Return value:  Size  Location     Type
  3361 ;;                  2    0[COMMON] unsigned int 
  3362 ;; Registers used:
  3363 ;;		wreg, status,2, status,0
  3364 ;; Tracked objects:
  3365 ;;		On entry : 0/0
  3366 ;;		On exit  : 0/0
  3367 ;;		Unchanged: 0/0
  3368 ;; Data sizes:     COMMON   BANK0   BANK1   BANK3   BANK2
  3369 ;;      Params:         2       0       0       0       0
  3370 ;;      Locals:         5       0       0       0       0
  3371 ;;      Temps:          2       0       0       0       0
  3372 ;;      Totals:         9       0       0       0       0
  3373 ;;Total ram usage:        9 bytes
  3374 ;; Hardware stack levels used: 1
  3375 ;; This function calls:
  3376 ;;		Nothing
  3377 ;; This function is called by:
  3378 ;;		___flmul
  3379 ;; This function uses a non-reentrant model
  3380 ;;
  3381                           
  3382                           
  3383                           ;psect for function __Umul8_16
  3384  0F2F                     __Umul8_16:
  3385                           
  3386                           ;incstack = 0
  3387                           ; Regs used in __Umul8_16: [wreg+status,2+status,0]
  3388                           ;__Umul8_16@multiplier stored from wreg
  3389  0F2F  00F8               	movwf	__Umul8_16@multiplier
  3390  0F30                     l1427:
  3391  0F30  01F4               	clrf	__Umul8_16@product
  3392  0F31  01F5               	clrf	__Umul8_16@product+1
  3393  0F32                     l1429:
  3394  0F32  0870               	movf	__Umul8_16@multiplicand,w
  3395  0F33  00F2               	movwf	??__Umul8_16
  3396  0F34  01F3               	clrf	??__Umul8_16+1
  3397  0F35  0872               	movf	??__Umul8_16,w
  3398  0F36  00F6               	movwf	__Umul8_16@word_mpld
  3399  0F37  0873               	movf	??__Umul8_16+1,w
  3400  0F38  00F7               	movwf	__Umul8_16@word_mpld+1
  3401  0F39                     l1431:
  3402  0F39  1C78               	btfss	__Umul8_16@multiplier,0
  3403  0F3A  2F3C               	goto	u1141
  3404  0F3B  2F3D               	goto	u1140
  3405  0F3C                     u1141:
  3406  0F3C  2F43               	goto	l675
  3407  0F3D                     u1140:
  3408  0F3D                     l1433:
  3409  0F3D  0876               	movf	__Umul8_16@word_mpld,w
  3410  0F3E  07F4               	addwf	__Umul8_16@product,f
  3411  0F3F  1803               	skipnc
  3412  0F40  0AF5               	incf	__Umul8_16@product+1,f
  3413  0F41  0877               	movf	__Umul8_16@word_mpld+1,w
  3414  0F42  07F5               	addwf	__Umul8_16@product+1,f
  3415  0F43                     l675:
  3416  0F43  3001               	movlw	1
  3417  0F44                     u1155:
  3418  0F44  1003               	clrc
  3419  0F45  0DF6               	rlf	__Umul8_16@word_mpld,f
  3420  0F46  0DF7               	rlf	__Umul8_16@word_mpld+1,f
  3421  0F47  3EFF               	addlw	-1
  3422  0F48  1D03               	skipz
  3423  0F49  2F44               	goto	u1155
  3424  0F4A  1003               	clrc
  3425  0F4B  0CF8               	rrf	__Umul8_16@multiplier,f
  3426  0F4C                     l1435:
  3427  0F4C  0878               	movf	__Umul8_16@multiplier,w
  3428  0F4D  1D03               	btfss	3,2
  3429  0F4E  2F50               	goto	u1161
  3430  0F4F  2F51               	goto	u1160
  3431  0F50                     u1161:
  3432  0F50  2F39               	goto	l1431
  3433  0F51                     u1160:
  3434  0F51                     l1437:
  3435  0F51  0875               	movf	__Umul8_16@product+1,w
  3436  0F52  00F1               	movwf	?__Umul8_16+1
  3437  0F53  0874               	movf	__Umul8_16@product,w
  3438  0F54  00F0               	movwf	?__Umul8_16
  3439  0F55                     l677:
  3440  0F55  0008               	return
  3441  0F56                     __end_of__Umul8_16:
  3442                           
  3443                           	psect	text11
  3444  0EE5                     __ptext11:	
  3445 ;; *************** function _Lcd_Write_String *****************
  3446 ;; Defined at:
  3447 ;;		line 77 in file "LCD.c"
  3448 ;; Parameters:    Size  Location     Type
  3449 ;;  a               1    wreg     PTR unsigned char 
  3450 ;;		 -> STR_3(3), STR_2(3), STR_1(17), 
  3451 ;; Auto vars:     Size  Location     Type
  3452 ;;  a               1    7[COMMON] PTR unsigned char 
  3453 ;;		 -> STR_3(3), STR_2(3), STR_1(17), 
  3454 ;;  i               2    5[COMMON] int 
  3455 ;; Return value:  Size  Location     Type
  3456 ;;                  1    wreg      void 
  3457 ;; Registers used:
  3458 ;;		wreg, fsr0l, fsr0h, status,2, status,0, pclath, cstack
  3459 ;; Tracked objects:
  3460 ;;		On entry : 0/0
  3461 ;;		On exit  : 0/0
  3462 ;;		Unchanged: 0/0
  3463 ;; Data sizes:     COMMON   BANK0   BANK1   BANK3   BANK2
  3464 ;;      Params:         0       0       0       0       0
  3465 ;;      Locals:         3       0       0       0       0
  3466 ;;      Temps:          0       0       0       0       0
  3467 ;;      Totals:         3       0       0       0       0
  3468 ;;Total ram usage:        3 bytes
  3469 ;; Hardware stack levels used: 1
  3470 ;; Hardware stack levels required when called: 2
  3471 ;; This function calls:
  3472 ;;		_Lcd_Write_Char
  3473 ;; This function is called by:
  3474 ;;		_main
  3475 ;; This function uses a non-reentrant model
  3476 ;;
  3477                           
  3478                           
  3479                           ;psect for function _Lcd_Write_String
  3480  0EE5                     _Lcd_Write_String:
  3481                           
  3482                           ;incstack = 0
  3483                           ; Regs used in _Lcd_Write_String: [wreg-fsr0h+status,2+status,0+pclath+cstack]
  3484                           ;Lcd_Write_String@a stored from wreg
  3485  0EE5  00F7               	movwf	Lcd_Write_String@a
  3486  0EE6                     l1473:
  3487                           
  3488                           ;LCD.c: 78:     int i;;LCD.c: 79:     for (i = 0; a[i] != '\0'; i++)
  3489  0EE6  01F5               	clrf	Lcd_Write_String@i
  3490  0EE7  01F6               	clrf	Lcd_Write_String@i+1
  3491  0EE8  2EFC               	goto	l1479
  3492  0EE9                     l1475:
  3493                           
  3494                           ;LCD.c: 80:         Lcd_Write_Char(a[i]);
  3495  0EE9  0875               	movf	Lcd_Write_String@i,w
  3496  0EEA  0777               	addwf	Lcd_Write_String@a,w
  3497  0EEB  0084               	movwf	4
  3498  0EEC  120A  158A  2000  120A  158A  	fcall	stringdir
  3499  0EF1  120A  158A  26C8  120A  158A  	fcall	_Lcd_Write_Char
  3500  0EF6                     l1477:
  3501  0EF6  3001               	movlw	1
  3502  0EF7  07F5               	addwf	Lcd_Write_String@i,f
  3503  0EF8  1803               	skipnc
  3504  0EF9  0AF6               	incf	Lcd_Write_String@i+1,f
  3505  0EFA  3000               	movlw	0
  3506  0EFB  07F6               	addwf	Lcd_Write_String@i+1,f
  3507  0EFC                     l1479:
  3508  0EFC  0875               	movf	Lcd_Write_String@i,w
  3509  0EFD  0777               	addwf	Lcd_Write_String@a,w
  3510  0EFE  0084               	movwf	4
  3511  0EFF  120A  158A  2000  120A  158A  	fcall	stringdir
  3512  0F04  3A00               	xorlw	0
  3513  0F05  1D03               	skipz
  3514  0F06  2F08               	goto	u1211
  3515  0F07  2F09               	goto	u1210
  3516  0F08                     u1211:
  3517  0F08  2EE9               	goto	l1475
  3518  0F09                     u1210:
  3519  0F09                     l90:
  3520  0F09  0008               	return
  3521  0F0A                     __end_of_Lcd_Write_String:
  3522                           
  3523                           	psect	text12
  3524  0EC8                     __ptext12:	
  3525 ;; *************** function _Lcd_Write_Char *****************
  3526 ;; Defined at:
  3527 ;;		line 65 in file "LCD.c"
  3528 ;; Parameters:    Size  Location     Type
  3529 ;;  a               1    wreg     unsigned char 
  3530 ;; Auto vars:     Size  Location     Type
  3531 ;;  a               1    2[COMMON] unsigned char 
  3532 ;;  y               1    4[COMMON] unsigned char 
  3533 ;;  temp            1    3[COMMON] unsigned char 
  3534 ;; Return value:  Size  Location     Type
  3535 ;;                  1    wreg      void 
  3536 ;; Registers used:
  3537 ;;		wreg, status,2, status,0, pclath, cstack
  3538 ;; Tracked objects:
  3539 ;;		On entry : 0/0
  3540 ;;		On exit  : 0/0
  3541 ;;		Unchanged: 0/0
  3542 ;; Data sizes:     COMMON   BANK0   BANK1   BANK3   BANK2
  3543 ;;      Params:         0       0       0       0       0
  3544 ;;      Locals:         3       0       0       0       0
  3545 ;;      Temps:          1       0       0       0       0
  3546 ;;      Totals:         4       0       0       0       0
  3547 ;;Total ram usage:        4 bytes
  3548 ;; Hardware stack levels used: 1
  3549 ;; Hardware stack levels required when called: 1
  3550 ;; This function calls:
  3551 ;;		_Lcd_Port
  3552 ;; This function is called by:
  3553 ;;		_Lcd_Write_String
  3554 ;;		_main
  3555 ;; This function uses a non-reentrant model
  3556 ;;
  3557                           
  3558                           
  3559                           ;psect for function _Lcd_Write_Char
  3560  0EC8                     _Lcd_Write_Char:
  3561                           
  3562                           ;incstack = 0
  3563                           ; Regs used in _Lcd_Write_Char: [wreg+status,2+status,0+pclath+cstack]
  3564                           ;Lcd_Write_Char@a stored from wreg
  3565  0EC8  00F2               	movwf	Lcd_Write_Char@a
  3566  0EC9                     l1375:
  3567                           
  3568                           ;LCD.c: 66:     char temp, y;;LCD.c: 67:     temp = a;
  3569  0EC9  0872               	movf	Lcd_Write_Char@a,w
  3570  0ECA  00F1               	movwf	??_Lcd_Write_Char
  3571  0ECB  0871               	movf	??_Lcd_Write_Char,w
  3572  0ECC  00F3               	movwf	Lcd_Write_Char@temp
  3573                           
  3574                           ;LCD.c: 68:     y = temp;
  3575  0ECD  0873               	movf	Lcd_Write_Char@temp,w
  3576  0ECE  00F1               	movwf	??_Lcd_Write_Char
  3577  0ECF  0871               	movf	??_Lcd_Write_Char,w
  3578  0ED0  00F4               	movwf	Lcd_Write_Char@y
  3579  0ED1                     l1377:
  3580                           
  3581                           ;LCD.c: 69:     RE0 = 1;
  3582  0ED1  1283               	bcf	3,5	;RP0=0, select bank0
  3583  0ED2  1303               	bcf	3,6	;RP1=0, select bank0
  3584  0ED3  1409               	bsf	9,0	;volatile
  3585  0ED4                     l1379:
  3586                           
  3587                           ;LCD.c: 70:     Lcd_Port(y);
  3588  0ED4  0874               	movf	Lcd_Write_Char@y,w
  3589  0ED5  120A  158A  2672  120A  158A  	fcall	_Lcd_Port
  3590  0EDA                     l1381:
  3591                           
  3592                           ;LCD.c: 71:     RE1 = 1;
  3593  0EDA  1283               	bcf	3,5	;RP0=0, select bank0
  3594  0EDB  1303               	bcf	3,6	;RP1=0, select bank0
  3595  0EDC  1489               	bsf	9,1	;volatile
  3596  0EDD                     l1383:
  3597                           
  3598                           ;LCD.c: 72:     _delay((unsigned long)((40)*(4000000/4000000.0)));
  3599  0EDD  300D               	movlw	13
  3600  0EDE  00F1               	movwf	??_Lcd_Write_Char
  3601  0EDF                     u1837:
  3602  0EDF  0BF1               	decfsz	??_Lcd_Write_Char,f
  3603  0EE0  2EDF               	goto	u1837
  3604  0EE1                     l1385:
  3605                           
  3606                           ;LCD.c: 73:     RE1 = 0;
  3607  0EE1  1283               	bcf	3,5	;RP0=0, select bank0
  3608  0EE2  1303               	bcf	3,6	;RP1=0, select bank0
  3609  0EE3  1089               	bcf	9,1	;volatile
  3610  0EE4                     l84:
  3611  0EE4  0008               	return
  3612  0EE5                     __end_of_Lcd_Write_Char:
  3613                           
  3614                           	psect	text13
  3615  0077                     __ptext13:	
  3616 ;; *************** function _Lcd_Set_Cursor *****************
  3617 ;; Defined at:
  3618 ;;		line 30 in file "LCD.c"
  3619 ;; Parameters:    Size  Location     Type
  3620 ;;  a               1    wreg     unsigned char 
  3621 ;;  b               1    4[COMMON] unsigned char 
  3622 ;; Auto vars:     Size  Location     Type
  3623 ;;  a               1    7[COMMON] unsigned char 
  3624 ;;  temp            1   10[COMMON] unsigned char 
  3625 ;;  y               1    9[COMMON] unsigned char 
  3626 ;;  z               1    8[COMMON] unsigned char 
  3627 ;; Return value:  Size  Location     Type
  3628 ;;                  1    wreg      void 
  3629 ;; Registers used:
  3630 ;;		wreg, status,2, status,0, pclath, cstack
  3631 ;; Tracked objects:
  3632 ;;		On entry : 0/0
  3633 ;;		On exit  : 0/0
  3634 ;;		Unchanged: 0/0
  3635 ;; Data sizes:     COMMON   BANK0   BANK1   BANK3   BANK2
  3636 ;;      Params:         1       0       0       0       0
  3637 ;;      Locals:         4       0       0       0       0
  3638 ;;      Temps:          2       0       0       0       0
  3639 ;;      Totals:         7       0       0       0       0
  3640 ;;Total ram usage:        7 bytes
  3641 ;; Hardware stack levels used: 1
  3642 ;; Hardware stack levels required when called: 2
  3643 ;; This function calls:
  3644 ;;		_Lcd_Cmd
  3645 ;; This function is called by:
  3646 ;;		_main
  3647 ;; This function uses a non-reentrant model
  3648 ;;
  3649                           
  3650                           
  3651                           ;psect for function _Lcd_Set_Cursor
  3652  0077                     _Lcd_Set_Cursor:
  3653                           
  3654                           ;incstack = 0
  3655                           ; Regs used in _Lcd_Set_Cursor: [wreg+status,2+status,0+pclath+cstack]
  3656                           ;Lcd_Set_Cursor@a stored from wreg
  3657  0077  00F7               	movwf	Lcd_Set_Cursor@a
  3658  0078                     l1443:
  3659                           
  3660                           ;LCD.c: 31:     char temp, z, y;;LCD.c: 32:     if (a == 1) {
  3661  0078  0377               	decf	Lcd_Set_Cursor@a,w
  3662  0079  1D03               	btfss	3,2
  3663  007A  287C               	goto	u1171
  3664  007B  287D               	goto	u1170
  3665  007C                     u1171:
  3666  007C  28A0               	goto	l1453
  3667  007D                     u1170:
  3668  007D                     l1445:
  3669                           
  3670                           ;LCD.c: 33:         temp = 0x80 + b - 1;
  3671  007D  0874               	movf	Lcd_Set_Cursor@b,w
  3672  007E  3E7F               	addlw	127
  3673  007F  00F5               	movwf	??_Lcd_Set_Cursor
  3674  0080  0875               	movf	??_Lcd_Set_Cursor,w
  3675  0081  00FA               	movwf	Lcd_Set_Cursor@temp
  3676                           
  3677                           ;LCD.c: 34:         z = temp >> 4;
  3678  0082  087A               	movf	Lcd_Set_Cursor@temp,w
  3679  0083  00F5               	movwf	??_Lcd_Set_Cursor
  3680  0084  3004               	movlw	4
  3681  0085                     u1185:
  3682  0085  1003               	clrc
  3683  0086  0CF5               	rrf	??_Lcd_Set_Cursor,f
  3684  0087  3EFF               	addlw	-1
  3685  0088  1D03               	skipz
  3686  0089  2885               	goto	u1185
  3687  008A  0875               	movf	??_Lcd_Set_Cursor,w
  3688  008B  00F6               	movwf	??_Lcd_Set_Cursor+1
  3689  008C  0876               	movf	??_Lcd_Set_Cursor+1,w
  3690  008D  00F8               	movwf	Lcd_Set_Cursor@z
  3691  008E                     l1447:
  3692                           
  3693                           ;LCD.c: 35:         y = temp & 0x0F;
  3694  008E  087A               	movf	Lcd_Set_Cursor@temp,w
  3695  008F  390F               	andlw	15
  3696  0090  00F5               	movwf	??_Lcd_Set_Cursor
  3697  0091  0875               	movf	??_Lcd_Set_Cursor,w
  3698  0092  00F9               	movwf	Lcd_Set_Cursor@y
  3699  0093                     l1449:
  3700                           
  3701                           ;LCD.c: 36:         Lcd_Cmd(z);
  3702  0093  0878               	movf	Lcd_Set_Cursor@z,w
  3703  0094  120A  158A  26AE  120A  118A  	fcall	_Lcd_Cmd
  3704  0099                     l1451:
  3705                           
  3706                           ;LCD.c: 37:         Lcd_Cmd(y);
  3707  0099  0879               	movf	Lcd_Set_Cursor@y,w
  3708  009A  120A  158A  26AE  120A  118A  	fcall	_Lcd_Cmd
  3709                           
  3710                           ;LCD.c: 38:     } else if (a == 2) {
  3711  009F  28C8               	goto	l78
  3712  00A0                     l1453:
  3713  00A0  3002               	movlw	2
  3714  00A1  0677               	xorwf	Lcd_Set_Cursor@a,w
  3715  00A2  1D03               	btfss	3,2
  3716  00A3  28A5               	goto	u1191
  3717  00A4  28A6               	goto	u1190
  3718  00A5                     u1191:
  3719  00A5  28C8               	goto	l78
  3720  00A6                     u1190:
  3721  00A6                     l1455:
  3722                           
  3723                           ;LCD.c: 39:         temp = 0xC0 + b - 1;
  3724  00A6  0874               	movf	Lcd_Set_Cursor@b,w
  3725  00A7  3EBF               	addlw	191
  3726  00A8  00F5               	movwf	??_Lcd_Set_Cursor
  3727  00A9  0875               	movf	??_Lcd_Set_Cursor,w
  3728  00AA  00FA               	movwf	Lcd_Set_Cursor@temp
  3729                           
  3730                           ;LCD.c: 40:         z = temp >> 4;
  3731  00AB  087A               	movf	Lcd_Set_Cursor@temp,w
  3732  00AC  00F5               	movwf	??_Lcd_Set_Cursor
  3733  00AD  3004               	movlw	4
  3734  00AE                     u1205:
  3735  00AE  1003               	clrc
  3736  00AF  0CF5               	rrf	??_Lcd_Set_Cursor,f
  3737  00B0  3EFF               	addlw	-1
  3738  00B1  1D03               	skipz
  3739  00B2  28AE               	goto	u1205
  3740  00B3  0875               	movf	??_Lcd_Set_Cursor,w
  3741  00B4  00F6               	movwf	??_Lcd_Set_Cursor+1
  3742  00B5  0876               	movf	??_Lcd_Set_Cursor+1,w
  3743  00B6  00F8               	movwf	Lcd_Set_Cursor@z
  3744  00B7                     l1457:
  3745                           
  3746                           ;LCD.c: 41:         y = temp & 0xF0;
  3747  00B7  087A               	movf	Lcd_Set_Cursor@temp,w
  3748  00B8  39F0               	andlw	240
  3749  00B9  00F5               	movwf	??_Lcd_Set_Cursor
  3750  00BA  0875               	movf	??_Lcd_Set_Cursor,w
  3751  00BB  00F9               	movwf	Lcd_Set_Cursor@y
  3752  00BC                     l1459:
  3753                           
  3754                           ;LCD.c: 42:         Lcd_Cmd(z);
  3755  00BC  0878               	movf	Lcd_Set_Cursor@z,w
  3756  00BD  120A  158A  26AE  120A  118A  	fcall	_Lcd_Cmd
  3757  00C2                     l1461:
  3758                           
  3759                           ;LCD.c: 43:         Lcd_Cmd(y);
  3760  00C2  0879               	movf	Lcd_Set_Cursor@y,w
  3761  00C3  120A  158A  26AE  120A  118A  	fcall	_Lcd_Cmd
  3762  00C8                     l78:
  3763  00C8  0008               	return
  3764  00C9                     __end_of_Lcd_Set_Cursor:
  3765                           
  3766                           	psect	text14
  3767  0030                     __ptext14:	
  3768 ;; *************** function _Lcd_Init *****************
  3769 ;; Defined at:
  3770 ;;		line 47 in file "LCD.c"
  3771 ;; Parameters:    Size  Location     Type
  3772 ;;		None
  3773 ;; Auto vars:     Size  Location     Type
  3774 ;;		None
  3775 ;; Return value:  Size  Location     Type
  3776 ;;                  1    wreg      void 
  3777 ;; Registers used:
  3778 ;;		wreg, status,2, status,0, pclath, cstack
  3779 ;; Tracked objects:
  3780 ;;		On entry : 0/0
  3781 ;;		On exit  : 0/0
  3782 ;;		Unchanged: 0/0
  3783 ;; Data sizes:     COMMON   BANK0   BANK1   BANK3   BANK2
  3784 ;;      Params:         0       0       0       0       0
  3785 ;;      Locals:         0       0       0       0       0
  3786 ;;      Temps:          2       0       0       0       0
  3787 ;;      Totals:         2       0       0       0       0
  3788 ;;Total ram usage:        2 bytes
  3789 ;; Hardware stack levels used: 1
  3790 ;; Hardware stack levels required when called: 2
  3791 ;; This function calls:
  3792 ;;		_Lcd_Cmd
  3793 ;;		_Lcd_Port
  3794 ;; This function is called by:
  3795 ;;		_main
  3796 ;; This function uses a non-reentrant model
  3797 ;;
  3798                           
  3799                           
  3800                           ;psect for function _Lcd_Init
  3801  0030                     _Lcd_Init:
  3802  0030                     l1463:	
  3803                           ;incstack = 0
  3804                           ; Regs used in _Lcd_Init: [wreg+status,2+status,0+pclath+cstack]
  3805                           
  3806                           
  3807                           ;LCD.c: 48:     Lcd_Port(0x00);
  3808  0030  3000               	movlw	0
  3809  0031  120A  158A  2672  120A  118A  	fcall	_Lcd_Port
  3810  0036                     l1465:
  3811                           
  3812                           ;LCD.c: 49:     _delay((unsigned long)((20)*(4000000/4000.0)));
  3813  0036  301A               	movlw	26
  3814  0037  00F5               	movwf	??_Lcd_Init+1
  3815  0038  30F8               	movlw	248
  3816  0039  00F4               	movwf	??_Lcd_Init
  3817  003A                     u1847:
  3818  003A  0BF4               	decfsz	??_Lcd_Init,f
  3819  003B  283A               	goto	u1847
  3820  003C  0BF5               	decfsz	??_Lcd_Init+1,f
  3821  003D  283A               	goto	u1847
  3822  003E  0000               	nop
  3823  003F                     l1467:
  3824                           
  3825                           ;LCD.c: 50:     Lcd_Cmd(0x30);
  3826  003F  3030               	movlw	48
  3827  0040  120A  158A  26AE  120A  118A  	fcall	_Lcd_Cmd
  3828                           
  3829                           ;LCD.c: 51:     _delay((unsigned long)((5)*(4000000/4000.0)));
  3830  0045  3007               	movlw	7
  3831  0046  00F5               	movwf	??_Lcd_Init+1
  3832  0047  307D               	movlw	125
  3833  0048  00F4               	movwf	??_Lcd_Init
  3834  0049                     u1857:
  3835  0049  0BF4               	decfsz	??_Lcd_Init,f
  3836  004A  2849               	goto	u1857
  3837  004B  0BF5               	decfsz	??_Lcd_Init+1,f
  3838  004C  2849               	goto	u1857
  3839  004D                     l1469:
  3840                           
  3841                           ;LCD.c: 52:     Lcd_Cmd(0x30);
  3842  004D  3030               	movlw	48
  3843  004E  120A  158A  26AE  120A  118A  	fcall	_Lcd_Cmd
  3844  0053                     l1471:
  3845                           
  3846                           ;LCD.c: 53:     _delay((unsigned long)((200)*(4000000/4000000.0)));
  3847  0053  3042               	movlw	66
  3848  0054  00F4               	movwf	??_Lcd_Init
  3849  0055                     u1867:
  3850  0055  0BF4               	decfsz	??_Lcd_Init,f
  3851  0056  2855               	goto	u1867
  3852  0057  0000               	nop
  3853                           
  3854                           ;LCD.c: 54:     Lcd_Cmd(0x30);
  3855  0058  3030               	movlw	48
  3856  0059  120A  158A  26AE  120A  118A  	fcall	_Lcd_Cmd
  3857                           
  3858                           ;LCD.c: 56:     Lcd_Cmd(0x3C);
  3859  005E  303C               	movlw	60
  3860  005F  120A  158A  26AE  120A  118A  	fcall	_Lcd_Cmd
  3861                           
  3862                           ;LCD.c: 58:     Lcd_Cmd(0x08);
  3863  0064  3008               	movlw	8
  3864  0065  120A  158A  26AE  120A  118A  	fcall	_Lcd_Cmd
  3865                           
  3866                           ;LCD.c: 60:     Lcd_Cmd(0x01);
  3867  006A  3001               	movlw	1
  3868  006B  120A  158A  26AE  120A  118A  	fcall	_Lcd_Cmd
  3869                           
  3870                           ;LCD.c: 62:     Lcd_Cmd(0x06);
  3871  0070  3006               	movlw	6
  3872  0071  120A  158A  26AE  120A  118A  	fcall	_Lcd_Cmd
  3873  0076                     l81:
  3874  0076  0008               	return
  3875  0077                     __end_of_Lcd_Init:
  3876                           
  3877                           	psect	text15
  3878  0EA1                     __ptext15:	
  3879 ;; *************** function _Lcd_Clear *****************
  3880 ;; Defined at:
  3881 ;;		line 25 in file "LCD.c"
  3882 ;; Parameters:    Size  Location     Type
  3883 ;;		None
  3884 ;; Auto vars:     Size  Location     Type
  3885 ;;		None
  3886 ;; Return value:  Size  Location     Type
  3887 ;;                  1    wreg      void 
  3888 ;; Registers used:
  3889 ;;		wreg, status,2, status,0, pclath, cstack
  3890 ;; Tracked objects:
  3891 ;;		On entry : 0/0
  3892 ;;		On exit  : 0/0
  3893 ;;		Unchanged: 0/0
  3894 ;; Data sizes:     COMMON   BANK0   BANK1   BANK3   BANK2
  3895 ;;      Params:         0       0       0       0       0
  3896 ;;      Locals:         0       0       0       0       0
  3897 ;;      Temps:          0       0       0       0       0
  3898 ;;      Totals:         0       0       0       0       0
  3899 ;;Total ram usage:        0 bytes
  3900 ;; Hardware stack levels used: 1
  3901 ;; Hardware stack levels required when called: 2
  3902 ;; This function calls:
  3903 ;;		_Lcd_Cmd
  3904 ;; This function is called by:
  3905 ;;		_main
  3906 ;; This function uses a non-reentrant model
  3907 ;;
  3908                           
  3909                           
  3910                           ;psect for function _Lcd_Clear
  3911  0EA1                     _Lcd_Clear:
  3912  0EA1                     l1441:	
  3913                           ;incstack = 0
  3914                           ; Regs used in _Lcd_Clear: [wreg+status,2+status,0+pclath+cstack]
  3915                           
  3916                           
  3917                           ;LCD.c: 26:     Lcd_Cmd(0);
  3918  0EA1  3000               	movlw	0
  3919  0EA2  120A  158A  26AE  120A  158A  	fcall	_Lcd_Cmd
  3920                           
  3921                           ;LCD.c: 27:     Lcd_Cmd(1);
  3922  0EA7  3001               	movlw	1
  3923  0EA8  120A  158A  26AE  120A  158A  	fcall	_Lcd_Cmd
  3924  0EAD                     l72:
  3925  0EAD  0008               	return
  3926  0EAE                     __end_of_Lcd_Clear:
  3927                           
  3928                           	psect	text16
  3929  0EAE                     __ptext16:	
  3930 ;; *************** function _Lcd_Cmd *****************
  3931 ;; Defined at:
  3932 ;;		line 17 in file "LCD.c"
  3933 ;; Parameters:    Size  Location     Type
  3934 ;;  a               1    wreg     unsigned char 
  3935 ;; Auto vars:     Size  Location     Type
  3936 ;;  a               1    3[COMMON] unsigned char 
  3937 ;; Return value:  Size  Location     Type
  3938 ;;                  1    wreg      void 
  3939 ;; Registers used:
  3940 ;;		wreg, status,2, status,0, pclath, cstack
  3941 ;; Tracked objects:
  3942 ;;		On entry : 0/0
  3943 ;;		On exit  : 0/0
  3944 ;;		Unchanged: 0/0
  3945 ;; Data sizes:     COMMON   BANK0   BANK1   BANK3   BANK2
  3946 ;;      Params:         0       0       0       0       0
  3947 ;;      Locals:         1       0       0       0       0
  3948 ;;      Temps:          2       0       0       0       0
  3949 ;;      Totals:         3       0       0       0       0
  3950 ;;Total ram usage:        3 bytes
  3951 ;; Hardware stack levels used: 1
  3952 ;; Hardware stack levels required when called: 1
  3953 ;; This function calls:
  3954 ;;		_Lcd_Port
  3955 ;; This function is called by:
  3956 ;;		_Lcd_Clear
  3957 ;;		_Lcd_Set_Cursor
  3958 ;;		_Lcd_Init
  3959 ;;		_Lcd_Shift_Right
  3960 ;;		_Lcd_Shift_Left
  3961 ;; This function uses a non-reentrant model
  3962 ;;
  3963                           
  3964                           
  3965                           ;psect for function _Lcd_Cmd
  3966  0EAE                     _Lcd_Cmd:
  3967                           
  3968                           ;incstack = 0
  3969                           ; Regs used in _Lcd_Cmd: [wreg+status,2+status,0+pclath+cstack]
  3970                           ;Lcd_Cmd@a stored from wreg
  3971  0EAE  00F3               	movwf	Lcd_Cmd@a
  3972  0EAF                     l1365:
  3973                           
  3974                           ;LCD.c: 18:     RE0 = 0;
  3975  0EAF  1283               	bcf	3,5	;RP0=0, select bank0
  3976  0EB0  1303               	bcf	3,6	;RP1=0, select bank0
  3977  0EB1  1009               	bcf	9,0	;volatile
  3978  0EB2                     l1367:
  3979                           
  3980                           ;LCD.c: 19:     Lcd_Port(a);
  3981  0EB2  0873               	movf	Lcd_Cmd@a,w
  3982  0EB3  120A  158A  2672  120A  158A  	fcall	_Lcd_Port
  3983  0EB8                     l1369:
  3984                           
  3985                           ;LCD.c: 20:     RE1 = 1;
  3986  0EB8  1283               	bcf	3,5	;RP0=0, select bank0
  3987  0EB9  1303               	bcf	3,6	;RP1=0, select bank0
  3988  0EBA  1489               	bsf	9,1	;volatile
  3989  0EBB                     l1371:
  3990                           
  3991                           ;LCD.c: 21:     _delay((unsigned long)((4)*(4000000/4000.0)));
  3992  0EBB  3006               	movlw	6
  3993  0EBC  00F2               	movwf	??_Lcd_Cmd+1
  3994  0EBD  3030               	movlw	48
  3995  0EBE  00F1               	movwf	??_Lcd_Cmd
  3996  0EBF                     u1877:
  3997  0EBF  0BF1               	decfsz	??_Lcd_Cmd,f
  3998  0EC0  2EBF               	goto	u1877
  3999  0EC1  0BF2               	decfsz	??_Lcd_Cmd+1,f
  4000  0EC2  2EBF               	goto	u1877
  4001  0EC3  0000               	nop
  4002  0EC4                     l1373:
  4003                           
  4004                           ;LCD.c: 22:     RE1 = 0;
  4005  0EC4  1283               	bcf	3,5	;RP0=0, select bank0
  4006  0EC5  1303               	bcf	3,6	;RP1=0, select bank0
  4007  0EC6  1089               	bcf	9,1	;volatile
  4008  0EC7                     l69:
  4009  0EC7  0008               	return
  4010  0EC8                     __end_of_Lcd_Cmd:
  4011                           
  4012                           	psect	text17
  4013  0E72                     __ptext17:	
  4014 ;; *************** function _Lcd_Port *****************
  4015 ;; Defined at:
  4016 ;;		line 12 in file "LCD.c"
  4017 ;; Parameters:    Size  Location     Type
  4018 ;;  a               1    wreg     unsigned char 
  4019 ;; Auto vars:     Size  Location     Type
  4020 ;;  a               1    0[COMMON] unsigned char 
  4021 ;; Return value:  Size  Location     Type
  4022 ;;                  1    wreg      void 
  4023 ;; Registers used:
  4024 ;;		wreg
  4025 ;; Tracked objects:
  4026 ;;		On entry : 0/0
  4027 ;;		On exit  : 0/0
  4028 ;;		Unchanged: 0/0
  4029 ;; Data sizes:     COMMON   BANK0   BANK1   BANK3   BANK2
  4030 ;;      Params:         0       0       0       0       0
  4031 ;;      Locals:         1       0       0       0       0
  4032 ;;      Temps:          0       0       0       0       0
  4033 ;;      Totals:         1       0       0       0       0
  4034 ;;Total ram usage:        1 bytes
  4035 ;; Hardware stack levels used: 1
  4036 ;; This function calls:
  4037 ;;		Nothing
  4038 ;; This function is called by:
  4039 ;;		_Lcd_Cmd
  4040 ;;		_Lcd_Init
  4041 ;;		_Lcd_Write_Char
  4042 ;; This function uses a non-reentrant model
  4043 ;;
  4044                           
  4045                           
  4046                           ;psect for function _Lcd_Port
  4047  0E72                     _Lcd_Port:
  4048                           
  4049                           ;incstack = 0
  4050                           ; Regs used in _Lcd_Port: [wreg]
  4051                           ;Lcd_Port@a stored from wreg
  4052  0E72  00F0               	movwf	Lcd_Port@a
  4053  0E73                     l1299:
  4054                           
  4055                           ;LCD.c: 13:     PORTD = a;
  4056  0E73  0870               	movf	Lcd_Port@a,w
  4057  0E74  1283               	bcf	3,5	;RP0=0, select bank0
  4058  0E75  1303               	bcf	3,6	;RP1=0, select bank0
  4059  0E76  0088               	movwf	8	;volatile
  4060  0E77                     l66:
  4061  0E77  0008               	return
  4062  0E78                     __end_of_Lcd_Port:
  4063                           
  4064                           	psect	text18
  4065  02D5                     __ptext18:	
  4066 ;; *************** function _I2C_Command *****************
  4067 ;; Defined at:
  4068 ;;		line 77 in file "LAB4_main.c"
  4069 ;; Parameters:    Size  Location     Type
  4070 ;;		None
  4071 ;; Auto vars:     Size  Location     Type
  4072 ;;		None
  4073 ;; Return value:  Size  Location     Type
  4074 ;;                  1    wreg      void 
  4075 ;; Registers used:
  4076 ;;		wreg, status,2, status,0, pclath, cstack
  4077 ;; Tracked objects:
  4078 ;;		On entry : 0/0
  4079 ;;		On exit  : 0/0
  4080 ;;		Unchanged: 0/0
  4081 ;; Data sizes:     COMMON   BANK0   BANK1   BANK3   BANK2
  4082 ;;      Params:         0       0       0       0       0
  4083 ;;      Locals:         0       0       0       0       0
  4084 ;;      Temps:          3       0       0       0       0
  4085 ;;      Totals:         3       0       0       0       0
  4086 ;;Total ram usage:        3 bytes
  4087 ;; Hardware stack levels used: 1
  4088 ;; Hardware stack levels required when called: 2
  4089 ;; This function calls:
  4090 ;;		_I2C_Master_Read
  4091 ;;		_I2C_Master_Start
  4092 ;;		_I2C_Master_Stop
  4093 ;;		_I2C_Master_Write
  4094 ;; This function is called by:
  4095 ;;		_main
  4096 ;; This function uses a non-reentrant model
  4097 ;;
  4098                           
  4099                           
  4100                           ;psect for function _I2C_Command
  4101  02D5                     _I2C_Command:
  4102  02D5                     l1491:	
  4103                           ;incstack = 0
  4104                           ; Regs used in _I2C_Command: [wreg+status,2+status,0+pclath+cstack]
  4105                           
  4106                           
  4107                           ;LAB4_main.c: 78:     I2C_Master_Start();
  4108  02D5  120A  158A  2678  120A  118A  	fcall	_I2C_Master_Start
  4109                           
  4110                           ;LAB4_main.c: 79:         I2C_Master_Write(0x71);
  4111  02DA  3071               	movlw	113
  4112  02DB  00F0               	movwf	I2C_Master_Write@d
  4113  02DC  3000               	movlw	0
  4114  02DD  00F1               	movwf	I2C_Master_Write@d+1
  4115  02DE  120A  158A  268A  120A  118A  	fcall	_I2C_Master_Write
  4116                           
  4117                           ;LAB4_main.c: 80:         var0 = I2C_Master_Read(0);
  4118  02E3  3000               	movlw	0
  4119  02E4  00F0               	movwf	I2C_Master_Read@a
  4120  02E5  00F1               	movwf	I2C_Master_Read@a+1
  4121  02E6  120A  158A  2756  120A  118A  	fcall	_I2C_Master_Read
  4122  02EB  0871               	movf	?_I2C_Master_Read+1,w
  4123  02EC  1283               	bcf	3,5	;RP0=0, select bank0
  4124  02ED  1303               	bcf	3,6	;RP1=0, select bank0
  4125  02EE  00CA               	movwf	_var0+1
  4126  02EF  0870               	movf	?_I2C_Master_Read,w
  4127  02F0  00C9               	movwf	_var0
  4128                           
  4129                           ;LAB4_main.c: 81:         I2C_Master_Stop();
  4130  02F1  120A  158A  2681  120A  118A  	fcall	_I2C_Master_Stop
  4131  02F6                     l1493:
  4132                           
  4133                           ;LAB4_main.c: 82:         _delay((unsigned long)((200)*(8000000/4000.0)));
  4134  02F6  3003               	movlw	3
  4135  02F7  00F8               	movwf	??_I2C_Command+2
  4136  02F8  3008               	movlw	8
  4137  02F9  00F7               	movwf	??_I2C_Command+1
  4138  02FA  3077               	movlw	119
  4139  02FB  00F6               	movwf	??_I2C_Command
  4140  02FC                     u1887:
  4141  02FC  0BF6               	decfsz	??_I2C_Command,f
  4142  02FD  2AFC               	goto	u1887
  4143  02FE  0BF7               	decfsz	??_I2C_Command+1,f
  4144  02FF  2AFC               	goto	u1887
  4145  0300  0BF8               	decfsz	??_I2C_Command+2,f
  4146  0301  2AFC               	goto	u1887
  4147  0302                     l1495:
  4148                           
  4149                           ;LAB4_main.c: 83:         I2C_Master_Start();
  4150  0302  120A  158A  2678  120A  118A  	fcall	_I2C_Master_Start
  4151  0307                     l1497:
  4152                           
  4153                           ;LAB4_main.c: 84:         I2C_Master_Write(0x81);
  4154  0307  3081               	movlw	129
  4155  0308  00F0               	movwf	I2C_Master_Write@d
  4156  0309  3000               	movlw	0
  4157  030A  00F1               	movwf	I2C_Master_Write@d+1
  4158  030B  120A  158A  268A  120A  118A  	fcall	_I2C_Master_Write
  4159  0310                     l1499:
  4160                           
  4161                           ;LAB4_main.c: 85:         c = I2C_Master_Read(0);
  4162  0310  3000               	movlw	0
  4163  0311  00F0               	movwf	I2C_Master_Read@a
  4164  0312  00F1               	movwf	I2C_Master_Read@a+1
  4165  0313  120A  158A  2756  120A  118A  	fcall	_I2C_Master_Read
  4166  0318  0870               	movf	?_I2C_Master_Read,w
  4167  0319  00F6               	movwf	??_I2C_Command
  4168  031A  0876               	movf	??_I2C_Command,w
  4169  031B  1283               	bcf	3,5	;RP0=0, select bank0
  4170  031C  1303               	bcf	3,6	;RP1=0, select bank0
  4171  031D  00CD               	movwf	_c
  4172  031E                     l1501:
  4173                           
  4174                           ;LAB4_main.c: 86:         I2C_Master_Stop();
  4175  031E  120A  158A  2681  120A  118A  	fcall	_I2C_Master_Stop
  4176  0323                     l1503:
  4177                           
  4178                           ;LAB4_main.c: 87:         _delay((unsigned long)((200)*(8000000/4000.0)));
  4179  0323  3003               	movlw	3
  4180  0324  00F8               	movwf	??_I2C_Command+2
  4181  0325  3008               	movlw	8
  4182  0326  00F7               	movwf	??_I2C_Command+1
  4183  0327  3077               	movlw	119
  4184  0328  00F6               	movwf	??_I2C_Command
  4185  0329                     u1897:
  4186  0329  0BF6               	decfsz	??_I2C_Command,f
  4187  032A  2B29               	goto	u1897
  4188  032B  0BF7               	decfsz	??_I2C_Command+1,f
  4189  032C  2B29               	goto	u1897
  4190  032D  0BF8               	decfsz	??_I2C_Command+2,f
  4191  032E  2B29               	goto	u1897
  4192                           
  4193                           ;LAB4_main.c: 88:         I2C_Master_Start();
  4194  032F  120A  158A  2678  120A  118A  	fcall	_I2C_Master_Start
  4195                           
  4196                           ;LAB4_main.c: 89:         I2C_Master_Write(0x90);
  4197  0334  3090               	movlw	144
  4198  0335  00F0               	movwf	I2C_Master_Write@d
  4199  0336  3000               	movlw	0
  4200  0337  00F1               	movwf	I2C_Master_Write@d+1
  4201  0338  120A  158A  268A  120A  118A  	fcall	_I2C_Master_Write
  4202                           
  4203                           ;LAB4_main.c: 90:         I2C_Master_Write(0xEE);
  4204  033D  30EE               	movlw	238
  4205  033E  00F0               	movwf	I2C_Master_Write@d
  4206  033F  3000               	movlw	0
  4207  0340  00F1               	movwf	I2C_Master_Write@d+1
  4208  0341  120A  158A  268A  120A  118A  	fcall	_I2C_Master_Write
  4209                           
  4210                           ;LAB4_main.c: 91:         I2C_Master_Stop();
  4211  0346  120A  158A  2681  120A  118A  	fcall	_I2C_Master_Stop
  4212  034B                     l1505:
  4213                           
  4214                           ;LAB4_main.c: 92:         _delay((unsigned long)((200)*(8000000/4000.0)));
  4215  034B  3003               	movlw	3
  4216  034C  00F8               	movwf	??_I2C_Command+2
  4217  034D  3008               	movlw	8
  4218  034E  00F7               	movwf	??_I2C_Command+1
  4219  034F  3077               	movlw	119
  4220  0350  00F6               	movwf	??_I2C_Command
  4221  0351                     u1907:
  4222  0351  0BF6               	decfsz	??_I2C_Command,f
  4223  0352  2B51               	goto	u1907
  4224  0353  0BF7               	decfsz	??_I2C_Command+1,f
  4225  0354  2B51               	goto	u1907
  4226  0355  0BF8               	decfsz	??_I2C_Command+2,f
  4227  0356  2B51               	goto	u1907
  4228  0357                     l1507:
  4229                           
  4230                           ;LAB4_main.c: 93:         I2C_Master_Start();
  4231  0357  120A  158A  2678  120A  118A  	fcall	_I2C_Master_Start
  4232  035C                     l1509:
  4233                           
  4234                           ;LAB4_main.c: 94:         I2C_Master_Write(0x90);
  4235  035C  3090               	movlw	144
  4236  035D  00F0               	movwf	I2C_Master_Write@d
  4237  035E  3000               	movlw	0
  4238  035F  00F1               	movwf	I2C_Master_Write@d+1
  4239  0360  120A  158A  268A  120A  118A  	fcall	_I2C_Master_Write
  4240  0365                     l1511:
  4241                           
  4242                           ;LAB4_main.c: 95:         I2C_Master_Write(0xAA);
  4243  0365  30AA               	movlw	170
  4244  0366  00F0               	movwf	I2C_Master_Write@d
  4245  0367  3000               	movlw	0
  4246  0368  00F1               	movwf	I2C_Master_Write@d+1
  4247  0369  120A  158A  268A  120A  118A  	fcall	_I2C_Master_Write
  4248  036E                     l1513:
  4249                           
  4250                           ;LAB4_main.c: 96:         I2C_Master_Stop();
  4251  036E  120A  158A  2681  120A  118A  	fcall	_I2C_Master_Stop
  4252  0373                     l1515:
  4253                           
  4254                           ;LAB4_main.c: 97:         _delay((unsigned long)((200)*(8000000/4000.0)));
  4255  0373  3003               	movlw	3
  4256  0374  00F8               	movwf	??_I2C_Command+2
  4257  0375  3008               	movlw	8
  4258  0376  00F7               	movwf	??_I2C_Command+1
  4259  0377  3077               	movlw	119
  4260  0378  00F6               	movwf	??_I2C_Command
  4261  0379                     u1917:
  4262  0379  0BF6               	decfsz	??_I2C_Command,f
  4263  037A  2B79               	goto	u1917
  4264  037B  0BF7               	decfsz	??_I2C_Command+1,f
  4265  037C  2B79               	goto	u1917
  4266  037D  0BF8               	decfsz	??_I2C_Command+2,f
  4267  037E  2B79               	goto	u1917
  4268                           
  4269                           ;LAB4_main.c: 98:         I2C_Master_Start();
  4270  037F  120A  158A  2678  120A  118A  	fcall	_I2C_Master_Start
  4271                           
  4272                           ;LAB4_main.c: 99:         I2C_Master_Write(0x91);
  4273  0384  3091               	movlw	145
  4274  0385  00F0               	movwf	I2C_Master_Write@d
  4275  0386  3000               	movlw	0
  4276  0387  00F1               	movwf	I2C_Master_Write@d+1
  4277  0388  120A  158A  268A  120A  118A  	fcall	_I2C_Master_Write
  4278                           
  4279                           ;LAB4_main.c: 100:         temp = I2C_Master_Read(0);
  4280  038D  3000               	movlw	0
  4281  038E  00F0               	movwf	I2C_Master_Read@a
  4282  038F  00F1               	movwf	I2C_Master_Read@a+1
  4283  0390  120A  158A  2756  120A  118A  	fcall	_I2C_Master_Read
  4284  0395  0871               	movf	?_I2C_Master_Read+1,w
  4285  0396  1283               	bcf	3,5	;RP0=0, select bank0
  4286  0397  1303               	bcf	3,6	;RP1=0, select bank0
  4287  0398  00C8               	movwf	_temp+1
  4288  0399  0870               	movf	?_I2C_Master_Read,w
  4289  039A  00C7               	movwf	_temp
  4290                           
  4291                           ;LAB4_main.c: 101:         I2C_Master_Stop();
  4292  039B  120A  158A  2681  120A  118A  	fcall	_I2C_Master_Stop
  4293  03A0                     l1517:
  4294                           
  4295                           ;LAB4_main.c: 102:         _delay((unsigned long)((200)*(8000000/4000.0)));
  4296  03A0  3003               	movlw	3
  4297  03A1  00F8               	movwf	??_I2C_Command+2
  4298  03A2  3008               	movlw	8
  4299  03A3  00F7               	movwf	??_I2C_Command+1
  4300  03A4  3077               	movlw	119
  4301  03A5  00F6               	movwf	??_I2C_Command
  4302  03A6                     u1927:
  4303  03A6  0BF6               	decfsz	??_I2C_Command,f
  4304  03A7  2BA6               	goto	u1927
  4305  03A8  0BF7               	decfsz	??_I2C_Command+1,f
  4306  03A9  2BA6               	goto	u1927
  4307  03AA  0BF8               	decfsz	??_I2C_Command+2,f
  4308  03AB  2BA6               	goto	u1927
  4309  03AC                     l175:
  4310  03AC  0008               	return
  4311  03AD                     __end_of_I2C_Command:
  4312                           
  4313                           	psect	text19
  4314  0E8A                     __ptext19:	
  4315 ;; *************** function _I2C_Master_Write *****************
  4316 ;; Defined at:
  4317 ;;		line 65 in file "I2C.c"
  4318 ;; Parameters:    Size  Location     Type
  4319 ;;  d               2    0[COMMON] unsigned int 
  4320 ;; Auto vars:     Size  Location     Type
  4321 ;;		None
  4322 ;; Return value:  Size  Location     Type
  4323 ;;                  1    wreg      void 
  4324 ;; Registers used:
  4325 ;;		wreg, status,2, status,0, pclath, cstack
  4326 ;; Tracked objects:
  4327 ;;		On entry : 0/0
  4328 ;;		On exit  : 0/0
  4329 ;;		Unchanged: 0/0
  4330 ;; Data sizes:     COMMON   BANK0   BANK1   BANK3   BANK2
  4331 ;;      Params:         2       0       0       0       0
  4332 ;;      Locals:         0       0       0       0       0
  4333 ;;      Temps:          0       0       0       0       0
  4334 ;;      Totals:         2       0       0       0       0
  4335 ;;Total ram usage:        2 bytes
  4336 ;; Hardware stack levels used: 1
  4337 ;; Hardware stack levels required when called: 1
  4338 ;; This function calls:
  4339 ;;		_I2C_Master_Wait
  4340 ;; This function is called by:
  4341 ;;		_I2C_Command
  4342 ;; This function uses a non-reentrant model
  4343 ;;
  4344                           
  4345                           
  4346                           ;psect for function _I2C_Master_Write
  4347  0E8A                     _I2C_Master_Write:
  4348  0E8A                     l1345:	
  4349                           ;incstack = 0
  4350                           ; Regs used in _I2C_Master_Write: [wreg+status,2+status,0+pclath+cstack]
  4351                           
  4352                           
  4353                           ;I2C.c: 65: void I2C_Master_Write(unsigned d);I2C.c: 66: {;I2C.c: 67:     I2C_Master_Wai
      +                          t();
  4354  0E8A  120A  158A  2694  120A  158A  	fcall	_I2C_Master_Wait
  4355  0E8F                     l1347:
  4356                           
  4357                           ;I2C.c: 68:     SSPBUF = d;
  4358  0E8F  0870               	movf	I2C_Master_Write@d,w
  4359  0E90  1283               	bcf	3,5	;RP0=0, select bank0
  4360  0E91  1303               	bcf	3,6	;RP1=0, select bank0
  4361  0E92  0093               	movwf	19	;volatile
  4362  0E93                     l47:
  4363  0E93  0008               	return
  4364  0E94                     __end_of_I2C_Master_Write:
  4365                           
  4366                           	psect	text20
  4367  0E81                     __ptext20:	
  4368 ;; *************** function _I2C_Master_Stop *****************
  4369 ;; Defined at:
  4370 ;;		line 55 in file "I2C.c"
  4371 ;; Parameters:    Size  Location     Type
  4372 ;;		None
  4373 ;; Auto vars:     Size  Location     Type
  4374 ;;		None
  4375 ;; Return value:  Size  Location     Type
  4376 ;;                  1    wreg      void 
  4377 ;; Registers used:
  4378 ;;		wreg, status,2, status,0, pclath, cstack
  4379 ;; Tracked objects:
  4380 ;;		On entry : 0/0
  4381 ;;		On exit  : 0/0
  4382 ;;		Unchanged: 0/0
  4383 ;; Data sizes:     COMMON   BANK0   BANK1   BANK3   BANK2
  4384 ;;      Params:         0       0       0       0       0
  4385 ;;      Locals:         0       0       0       0       0
  4386 ;;      Temps:          0       0       0       0       0
  4387 ;;      Totals:         0       0       0       0       0
  4388 ;;Total ram usage:        0 bytes
  4389 ;; Hardware stack levels used: 1
  4390 ;; Hardware stack levels required when called: 1
  4391 ;; This function calls:
  4392 ;;		_I2C_Master_Wait
  4393 ;; This function is called by:
  4394 ;;		_I2C_Command
  4395 ;; This function uses a non-reentrant model
  4396 ;;
  4397                           
  4398                           
  4399                           ;psect for function _I2C_Master_Stop
  4400  0E81                     _I2C_Master_Stop:
  4401  0E81                     l1341:	
  4402                           ;incstack = 0
  4403                           ; Regs used in _I2C_Master_Stop: [wreg+status,2+status,0+pclath+cstack]
  4404                           
  4405                           
  4406                           ;I2C.c: 57:     I2C_Master_Wait();
  4407  0E81  120A  158A  2694  120A  158A  	fcall	_I2C_Master_Wait
  4408  0E86                     l1343:
  4409                           
  4410                           ;I2C.c: 58:     SSPCON2bits.PEN = 1;
  4411  0E86  1683               	bsf	3,5	;RP0=1, select bank1
  4412  0E87  1303               	bcf	3,6	;RP1=0, select bank1
  4413  0E88  1511               	bsf	17,2	;volatile
  4414  0E89                     l44:
  4415  0E89  0008               	return
  4416  0E8A                     __end_of_I2C_Master_Stop:
  4417                           
  4418                           	psect	text21
  4419  0E78                     __ptext21:	
  4420 ;; *************** function _I2C_Master_Start *****************
  4421 ;; Defined at:
  4422 ;;		line 39 in file "I2C.c"
  4423 ;; Parameters:    Size  Location     Type
  4424 ;;		None
  4425 ;; Auto vars:     Size  Location     Type
  4426 ;;		None
  4427 ;; Return value:  Size  Location     Type
  4428 ;;                  1    wreg      void 
  4429 ;; Registers used:
  4430 ;;		wreg, status,2, status,0, pclath, cstack
  4431 ;; Tracked objects:
  4432 ;;		On entry : 0/0
  4433 ;;		On exit  : 0/0
  4434 ;;		Unchanged: 0/0
  4435 ;; Data sizes:     COMMON   BANK0   BANK1   BANK3   BANK2
  4436 ;;      Params:         0       0       0       0       0
  4437 ;;      Locals:         0       0       0       0       0
  4438 ;;      Temps:          0       0       0       0       0
  4439 ;;      Totals:         0       0       0       0       0
  4440 ;;Total ram usage:        0 bytes
  4441 ;; Hardware stack levels used: 1
  4442 ;; Hardware stack levels required when called: 1
  4443 ;; This function calls:
  4444 ;;		_I2C_Master_Wait
  4445 ;; This function is called by:
  4446 ;;		_I2C_Command
  4447 ;; This function uses a non-reentrant model
  4448 ;;
  4449                           
  4450                           
  4451                           ;psect for function _I2C_Master_Start
  4452  0E78                     _I2C_Master_Start:
  4453  0E78                     l1337:	
  4454                           ;incstack = 0
  4455                           ; Regs used in _I2C_Master_Start: [wreg+status,2+status,0+pclath+cstack]
  4456                           
  4457                           
  4458                           ;I2C.c: 41:     I2C_Master_Wait();
  4459  0E78  120A  158A  2694  120A  158A  	fcall	_I2C_Master_Wait
  4460  0E7D                     l1339:
  4461                           
  4462                           ;I2C.c: 42:     SSPCON2bits.SEN = 1;
  4463  0E7D  1683               	bsf	3,5	;RP0=1, select bank1
  4464  0E7E  1303               	bcf	3,6	;RP1=0, select bank1
  4465  0E7F  1411               	bsf	17,0	;volatile
  4466  0E80                     l38:
  4467  0E80  0008               	return
  4468  0E81                     __end_of_I2C_Master_Start:
  4469                           
  4470                           	psect	text22
  4471  0F56                     __ptext22:	
  4472 ;; *************** function _I2C_Master_Read *****************
  4473 ;; Defined at:
  4474 ;;		line 74 in file "I2C.c"
  4475 ;; Parameters:    Size  Location     Type
  4476 ;;  a               2    0[COMMON] unsigned short 
  4477 ;; Auto vars:     Size  Location     Type
  4478 ;;  temp            2    4[COMMON] unsigned short 
  4479 ;; Return value:  Size  Location     Type
  4480 ;;                  2    0[COMMON] unsigned short 
  4481 ;; Registers used:
  4482 ;;		wreg, status,2, status,0, pclath, cstack
  4483 ;; Tracked objects:
  4484 ;;		On entry : 0/0
  4485 ;;		On exit  : 0/0
  4486 ;;		Unchanged: 0/0
  4487 ;; Data sizes:     COMMON   BANK0   BANK1   BANK3   BANK2
  4488 ;;      Params:         2       0       0       0       0
  4489 ;;      Locals:         2       0       0       0       0
  4490 ;;      Temps:          2       0       0       0       0
  4491 ;;      Totals:         6       0       0       0       0
  4492 ;;Total ram usage:        6 bytes
  4493 ;; Hardware stack levels used: 1
  4494 ;; Hardware stack levels required when called: 1
  4495 ;; This function calls:
  4496 ;;		_I2C_Master_Wait
  4497 ;; This function is called by:
  4498 ;;		_I2C_Command
  4499 ;; This function uses a non-reentrant model
  4500 ;;
  4501                           
  4502                           
  4503                           ;psect for function _I2C_Master_Read
  4504  0F56                     _I2C_Master_Read:
  4505  0F56                     l1349:	
  4506                           ;incstack = 0
  4507                           ; Regs used in _I2C_Master_Read: [wreg+status,2+status,0+pclath+cstack]
  4508                           
  4509                           
  4510                           ;I2C.c: 74: unsigned short I2C_Master_Read(unsigned short a);I2C.c: 75: {;I2C.c: 76:    
      +                           unsigned short temp;;I2C.c: 77:     I2C_Master_Wait();
  4511  0F56  120A  158A  2694  120A  158A  	fcall	_I2C_Master_Wait
  4512  0F5B                     l1351:
  4513                           
  4514                           ;I2C.c: 78:     SSPCON2bits.RCEN = 1;
  4515  0F5B  1683               	bsf	3,5	;RP0=1, select bank1
  4516  0F5C  1303               	bcf	3,6	;RP1=0, select bank1
  4517  0F5D  1591               	bsf	17,3	;volatile
  4518                           
  4519                           ;I2C.c: 79:     I2C_Master_Wait();
  4520  0F5E  120A  158A  2694  120A  158A  	fcall	_I2C_Master_Wait
  4521  0F63                     l1353:
  4522                           
  4523                           ;I2C.c: 80:     temp = SSPBUF;
  4524  0F63  1283               	bcf	3,5	;RP0=0, select bank0
  4525  0F64  1303               	bcf	3,6	;RP1=0, select bank0
  4526  0F65  0813               	movf	19,w	;volatile
  4527  0F66  00F2               	movwf	??_I2C_Master_Read
  4528  0F67  01F3               	clrf	??_I2C_Master_Read+1
  4529  0F68  0872               	movf	??_I2C_Master_Read,w
  4530  0F69  00F4               	movwf	I2C_Master_Read@temp
  4531  0F6A  0873               	movf	??_I2C_Master_Read+1,w
  4532  0F6B  00F5               	movwf	I2C_Master_Read@temp+1
  4533  0F6C                     l1355:
  4534                           
  4535                           ;I2C.c: 81:     I2C_Master_Wait();
  4536  0F6C  120A  158A  2694  120A  158A  	fcall	_I2C_Master_Wait
  4537  0F71                     l1357:
  4538                           
  4539                           ;I2C.c: 82:     if(a == 1){
  4540  0F71  0370               	decf	I2C_Master_Read@a,w
  4541  0F72  0471               	iorwf	I2C_Master_Read@a+1,w
  4542  0F73  1D03               	btfss	3,2
  4543  0F74  2F76               	goto	u1021
  4544  0F75  2F77               	goto	u1020
  4545  0F76                     u1021:
  4546  0F76  2F7B               	goto	l50
  4547  0F77                     u1020:
  4548  0F77                     l1359:
  4549                           
  4550                           ;I2C.c: 83:         SSPCON2bits.ACKDT = 0;
  4551  0F77  1683               	bsf	3,5	;RP0=1, select bank1
  4552  0F78  1303               	bcf	3,6	;RP1=0, select bank1
  4553  0F79  1291               	bcf	17,5	;volatile
  4554                           
  4555                           ;I2C.c: 84:     }else{
  4556  0F7A  2F7E               	goto	l51
  4557  0F7B                     l50:
  4558                           
  4559                           ;I2C.c: 85:         SSPCON2bits.ACKDT = 1;
  4560  0F7B  1683               	bsf	3,5	;RP0=1, select bank1
  4561  0F7C  1303               	bcf	3,6	;RP1=0, select bank1
  4562  0F7D  1691               	bsf	17,5	;volatile
  4563  0F7E                     l51:	
  4564                           ;I2C.c: 86:     }
  4565                           
  4566                           
  4567                           ;I2C.c: 87:     SSPCON2bits.ACKEN = 1;
  4568  0F7E  1611               	bsf	17,4	;volatile
  4569  0F7F                     l1361:
  4570                           
  4571                           ;I2C.c: 88:     return temp;
  4572  0F7F  0875               	movf	I2C_Master_Read@temp+1,w
  4573  0F80  00F1               	movwf	?_I2C_Master_Read+1
  4574  0F81  0874               	movf	I2C_Master_Read@temp,w
  4575  0F82  00F0               	movwf	?_I2C_Master_Read
  4576  0F83                     l52:
  4577  0F83  0008               	return
  4578  0F84                     __end_of_I2C_Master_Read:
  4579                           
  4580                           	psect	text23
  4581  0E94                     __ptext23:	
  4582 ;; *************** function _I2C_Master_Wait *****************
  4583 ;; Defined at:
  4584 ;;		line 32 in file "I2C.c"
  4585 ;; Parameters:    Size  Location     Type
  4586 ;;		None
  4587 ;; Auto vars:     Size  Location     Type
  4588 ;;		None
  4589 ;; Return value:  Size  Location     Type
  4590 ;;                  1    wreg      void 
  4591 ;; Registers used:
  4592 ;;		wreg, status,2
  4593 ;; Tracked objects:
  4594 ;;		On entry : 0/0
  4595 ;;		On exit  : 0/0
  4596 ;;		Unchanged: 0/0
  4597 ;; Data sizes:     COMMON   BANK0   BANK1   BANK3   BANK2
  4598 ;;      Params:         0       0       0       0       0
  4599 ;;      Locals:         0       0       0       0       0
  4600 ;;      Temps:          0       0       0       0       0
  4601 ;;      Totals:         0       0       0       0       0
  4602 ;;Total ram usage:        0 bytes
  4603 ;; Hardware stack levels used: 1
  4604 ;; This function calls:
  4605 ;;		Nothing
  4606 ;; This function is called by:
  4607 ;;		_I2C_Master_Start
  4608 ;;		_I2C_Master_Stop
  4609 ;;		_I2C_Master_Write
  4610 ;;		_I2C_Master_Read
  4611 ;;		_I2C_Master_RepeatedStart
  4612 ;; This function uses a non-reentrant model
  4613 ;;
  4614                           
  4615                           
  4616                           ;psect for function _I2C_Master_Wait
  4617  0E94                     _I2C_Master_Wait:
  4618  0E94                     l1295:	
  4619                           ;incstack = 0
  4620                           ; Regs used in _I2C_Master_Wait: [wreg+status,2]
  4621                           
  4622  0E94                     l32:	
  4623                           ;I2C.c: 34:     while ((SSPSTAT & 0x04) || (SSPCON2 & 0x1F));
  4624                           
  4625  0E94  1683               	bsf	3,5	;RP0=1, select bank1
  4626  0E95  1303               	bcf	3,6	;RP1=0, select bank1
  4627  0E96  1914               	btfsc	20,2	;volatile
  4628  0E97  2E99               	goto	u921
  4629  0E98  2E9A               	goto	u920
  4630  0E99                     u921:
  4631  0E99  2E94               	goto	l32
  4632  0E9A                     u920:
  4633  0E9A                     l1297:
  4634  0E9A  0811               	movf	17,w	;volatile
  4635  0E9B  391F               	andlw	31
  4636  0E9C  1D03               	btfss	3,2
  4637  0E9D  2E9F               	goto	u931
  4638  0E9E  2EA0               	goto	u930
  4639  0E9F                     u931:
  4640  0E9F  2E94               	goto	l32
  4641  0EA0                     u930:
  4642  0EA0                     l35:
  4643  0EA0  0008               	return
  4644  0EA1                     __end_of_I2C_Master_Wait:
  4645  007E                     btemp	set	126	;btemp
  4646  007E                     wtemp0	set	126
  4647                           
  4648                           	psect	config
  4649                           
  4650                           ;Config register CONFIG1 @ 0x2007
  4651                           ;	Oscillator Selection bits
  4652                           ;	FOSC = INTRC_NOCLKOUT, INTOSCIO oscillator: I/O function on RA6/OSC2/CLKOUT pin, I/O f
      +                          unction on RA7/OSC1/CLKIN
  4653                           ;	Watchdog Timer Enable bit
  4654                           ;	WDTE = OFF, WDT disabled and can be enabled by SWDTEN bit of the WDTCON register
  4655                           ;	Power-up Timer Enable bit
  4656                           ;	PWRTE = OFF, PWRT disabled
  4657                           ;	RE3/MCLR pin function select bit
  4658                           ;	MCLRE = OFF, RE3/MCLR pin function is digital input, MCLR internally tied to VDD
  4659                           ;	Code Protection bit
  4660                           ;	CP = OFF, Program memory code protection is disabled
  4661                           ;	Data Code Protection bit
  4662                           ;	CPD = OFF, Data memory code protection is disabled
  4663                           ;	Brown Out Reset Selection bits
  4664                           ;	BOREN = OFF, BOR disabled
  4665                           ;	Internal External Switchover bit
  4666                           ;	IESO = OFF, Internal/External Switchover mode is disabled
  4667                           ;	Fail-Safe Clock Monitor Enabled bit
  4668                           ;	FCMEN = OFF, Fail-Safe Clock Monitor is disabled
  4669                           ;	Low Voltage Programming Enable bit
  4670                           ;	LVP = OFF, RB3 pin has digital I/O, HV on MCLR must be used for programming
  4671                           ;	In-Circuit Debugger Mode bit
  4672                           ;	DEBUG = 0x1, unprogrammed default
  4673  2007                     	org	8199
  4674  2007  20D4               	dw	8404
  4675                           
  4676                           ;Config register CONFIG2 @ 0x2008
  4677                           ;	Brown-out Reset Selection bit
  4678                           ;	BOR4V = BOR40V, Brown-out Reset set to 4.0V
  4679                           ;	Flash Program Memory Self Write Enable bits
  4680                           ;	WRT = OFF, Write protection off
  4681  2008                     	org	8200
  4682  2008  3FFF               	dw	16383

Data Sizes:
    Strings     20
    Constant    0
    Data        0
    BSS         8
    Persistent  0
    Stack       0

Auto Spaces:
    Space          Size  Autos    Used
    COMMON           14     14      14
    BANK0            80     39      47
    BANK1            80      0       0
    BANK3            96      0       0
    BANK2            96      0       0

Pointer List with Targets:

    Lcd_Write_String@a	PTR unsigned char  size(1) Largest target is 17
		 -> STR_3(CODE[3]), STR_2(CODE[3]), STR_1(CODE[17]), 


Critical Paths under _main in COMMON

    _main->___xxtofl
    _main->_char_2_dec
    _I2C_Master_Init->___lldiv
    _char_2_dec->___lwdiv
    ___fltol->___xxtofl
    ___flmul->___xxtofl
    _Lcd_Write_String->_Lcd_Write_Char
    _Lcd_Write_Char->_Lcd_Port
    _Lcd_Set_Cursor->_Lcd_Cmd
    _Lcd_Init->_Lcd_Cmd
    _Lcd_Clear->_Lcd_Cmd
    _Lcd_Cmd->_Lcd_Port
    _I2C_Command->_I2C_Master_Read

Critical Paths under _main in BANK0

    _main->___fltol
    _initCONFIG->_I2C_Master_Init
    ___fltol->___flmul

Critical Paths under _main in BANK1

    None.

Critical Paths under _main in BANK3

    None.

Critical Paths under _main in BANK2

    None.

Call Graph Tables:

 ---------------------------------------------------------------------------------
 (Depth) Function   	        Calls       Base Space   Used Autos Params    Refs
 ---------------------------------------------------------------------------------
 (0) _main                                                 2     2      0    6529
                                             37 BANK0      2     2      0
                        _I2C_Command
                          _Lcd_Clear
                           _Lcd_Init
                     _Lcd_Set_Cursor
                     _Lcd_Write_Char
                   _Lcd_Write_String
                            ___flmul
                            ___fltol
                           ___xxtofl
                         _char_2_dec
                         _initCONFIG
 ---------------------------------------------------------------------------------
 (1) _initCONFIG                                           0     0      0     412
                    _I2C_Master_Init
 ---------------------------------------------------------------------------------
 (2) _I2C_Master_Init                                      8     4      4     412
                                              0 BANK0      8     4      4
                            ___lldiv
 ---------------------------------------------------------------------------------
 (3) ___lldiv                                             14     6      8     314
                                              0 COMMON    14     6      8
 ---------------------------------------------------------------------------------
 (1) _char_2_dec                                           6     4      2    1225
                                              8 COMMON     6     4      2
                            ___lwdiv
                             ___wmul
 ---------------------------------------------------------------------------------
 (2) ___wmul                                               6     2      4     396
                                              0 COMMON     6     2      4
 ---------------------------------------------------------------------------------
 (2) ___lwdiv                                              8     4      4     466
                                              0 COMMON     8     4      4
 ---------------------------------------------------------------------------------
 (1) ___xxtofl                                            14    10      4     398
                                              0 COMMON    14    10      4
 ---------------------------------------------------------------------------------
 (1) ___fltol                                             11     7      4     305
                                             26 BANK0     11     7      4
                            ___flmul (ARG)
                           ___xxtofl (ARG)
 ---------------------------------------------------------------------------------
 (1) ___flmul                                             26    18      8    2417
                                              0 BANK0     26    18      8
                          __Umul8_16
                           ___xxtofl (ARG)
 ---------------------------------------------------------------------------------
 (2) __Umul8_16                                            9     7      2     799
                                              0 COMMON     9     7      2
 ---------------------------------------------------------------------------------
 (1) _Lcd_Write_String                                     3     3      0     279
                                              5 COMMON     3     3      0
                     _Lcd_Write_Char
 ---------------------------------------------------------------------------------
 (2) _Lcd_Write_Char                                       4     4      0      90
                                              1 COMMON     4     4      0
                           _Lcd_Port
 ---------------------------------------------------------------------------------
 (1) _Lcd_Set_Cursor                                       7     6      1     466
                                              4 COMMON     7     6      1
                            _Lcd_Cmd
 ---------------------------------------------------------------------------------
 (1) _Lcd_Init                                             2     2      0      66
                                              4 COMMON     2     2      0
                            _Lcd_Cmd
                           _Lcd_Port
 ---------------------------------------------------------------------------------
 (1) _Lcd_Clear                                            0     0      0      44
                            _Lcd_Cmd
 ---------------------------------------------------------------------------------
 (2) _Lcd_Cmd                                              3     3      0      44
                                              1 COMMON     3     3      0
                           _Lcd_Port
 ---------------------------------------------------------------------------------
 (3) _Lcd_Port                                             1     1      0      22
                                              0 COMMON     1     1      0
 ---------------------------------------------------------------------------------
 (1) _I2C_Command                                          3     3      0     827
                                              6 COMMON     3     3      0
                    _I2C_Master_Read
                   _I2C_Master_Start
                    _I2C_Master_Stop
                   _I2C_Master_Write
 ---------------------------------------------------------------------------------
 (2) _I2C_Master_Write                                     2     0      2     554
                                              0 COMMON     2     0      2
                    _I2C_Master_Wait
 ---------------------------------------------------------------------------------
 (2) _I2C_Master_Stop                                      0     0      0       0
                    _I2C_Master_Wait
 ---------------------------------------------------------------------------------
 (2) _I2C_Master_Start                                     0     0      0       0
                    _I2C_Master_Wait
 ---------------------------------------------------------------------------------
 (2) _I2C_Master_Read                                      6     4      2     273
                                              0 COMMON     6     4      2
                    _I2C_Master_Wait
 ---------------------------------------------------------------------------------
 (3) _I2C_Master_Wait                                      0     0      0       0
 ---------------------------------------------------------------------------------
 Estimated maximum stack depth 3
 ---------------------------------------------------------------------------------

 Call Graph Graphs:

 _main (ROOT)
   _I2C_Command
     _I2C_Master_Read
       _I2C_Master_Wait
     _I2C_Master_Start
       _I2C_Master_Wait
     _I2C_Master_Stop
       _I2C_Master_Wait
     _I2C_Master_Write
       _I2C_Master_Wait
   _Lcd_Clear
     _Lcd_Cmd
       _Lcd_Port
   _Lcd_Init
     _Lcd_Cmd
     _Lcd_Port
   _Lcd_Set_Cursor
     _Lcd_Cmd
   _Lcd_Write_Char
     _Lcd_Port
   _Lcd_Write_String
     _Lcd_Write_Char
   ___flmul
     __Umul8_16
     ___xxtofl (ARG)
   ___fltol
     ___flmul (ARG)
     ___xxtofl (ARG)
   ___xxtofl
   _char_2_dec
     ___lwdiv
     ___wmul
   _initCONFIG
     _I2C_Master_Init
       ___lldiv

 Address spaces:
Name               Size   Autos  Total    Cost      Usage
BITCOMMON            E      0       0       0        0.0%
EEDATA             100      0       0       0        0.0%
NULL                 0      0       0       0        0.0%
CODE                 0      0       0       0        0.0%
COMMON               E      E       E       1      100.0%
BITSFR0              0      0       0       1        0.0%
SFR0                 0      0       0       1        0.0%
BITSFR1              0      0       0       2        0.0%
SFR1                 0      0       0       2        0.0%
STACK                0      0       0       2        0.0%
ABS                  0      0      3D       3        0.0%
BITBANK0            50      0       0       4        0.0%
BITSFR3              0      0       0       4        0.0%
SFR3                 0      0       0       4        0.0%
BANK0               50     27      2F       5       58.8%
BITSFR2              0      0       0       5        0.0%
SFR2                 0      0       0       5        0.0%
BITBANK1            50      0       0       6        0.0%
BANK1               50      0       0       7        0.0%
BITBANK3            60      0       0       8        0.0%
BANK3               60      0       0       9        0.0%
BITBANK2            60      0       0      10        0.0%
BANK2               60      0       0      11        0.0%
DATA                 0      0      3D      12        0.0%


Microchip Technology PIC Macro Assembler V2.32 build 20210201212658 
Symbol Table                                                                                   Thu Aug 12 15:12:45 2021

                        _c 004D                          pc 0002                         l32 0E94  
                       l50 0F7B                         l35 0EA0                         l51 0F7E  
                       l52 0F83                         l44 0E89                         l29 0FBB  
                       l38 0E80                         l47 0E93                         l72 0EAD  
                       l81 0076                         l66 0E77                         l90 0F09  
                       l84 0EE4                         l69 0EC7                         l78 00C8  
                       fsr 0004        ___wmul@multiplicand 0072        __Umul8_16@word_mpld 0076  
     __size_of_I2C_Command 00D8                        l303 012E                        l181 002F  
                      l175 03AC                        l178 019E                        l267 0F16  
                      l460 0205                        l700 023D                        l453 021A  
                      l269 0F2E                        l702 02D4                        l463 021A  
                      l713 029E                        l714 02AA                        l706 0282  
                      l539 0FFF                        l662 075D                        l656 07F1  
                      l675 0F43                        l668 07E5                        l677 0F55  
                      _GIE 005F                        _RE0 0048                        _RE1 0049  
                      u920 0E9A                        u921 0E99                        u930 0EA0  
                      u931 0E9F                        u940 00D9                        u941 00D8  
                      u960 00ED                        u961 00EC                        u955 00DE  
                      u980 0108                        u981 0107                        u975 00EF  
                      u985 0104                        u995 0118                        fsr0 0004  
             ___flmul@aexp 0032               ___flmul@bexp 0033               ___flmul@sign 002D  
             ___flmul@temp 0038               ___flmul@prod 0034               ___fltol@exp1 0044  
                     l1301 00C9                       l1311 00F6                       l1303 00D9  
                     l1401 0FBC                       l1313 0108                       l1305 00DC  
                     l1321 0126                       l1411 0FD2                       l1403 0FBE  
                     l1315 0116                       l1307 00E9                       l1331 0FB8  
                     l1341 0E81                       l1501 031E                       l1421 0FF5  
                     l1413 0FD6                       l1405 0FC4                       l1317 0117  
                     l1309 00ED                       l1333 0FB9                       l1325 0F84  
                     l1351 0F5B                       l1343 0E86                       l1511 0365  
                     l1503 0323                       l1431 0F39                       l1415 0FE7  
                     l1407 0FC7                       l1423 0FFB                       l1319 0120  
                     l1335 0FBA                       l1327 0F88                       l1361 0F7F  
                     l1353 0F63                       l1337 0E78                       l1345 0E8A  
                     l1513 036E                       l1505 034B                       l1441 0EA1  
                     l1433 0F3D                       l1601 04D9                       l1417 0FED  
                     l1409 0FCE                       l1521 0133                       l1329 0F8B  
                     l1355 0F6C                       l1339 0E7D                       l1347 0E8F  
                     l1515 0373                       l1507 0357                       l1371 0EBB  
                     l1451 0099                       l1443 0078                       l1435 0F4C  
                     l1427 0F30                       l1611 04F5                       l1603 04E1  
                     l1419 0FEE                       l1531 0194                       l1523 0146  
                     l1357 0F71                       l1349 0F56                       l1517 03A0  
                     l1509 035C                       l1373 0EC4                       l1365 0EAF  
                     l1461 00C2                       l1445 007D                       l1453 00A0  
                     l1381 0EDA                       l1437 0F51                       l1429 0F32  
                     l1701 07D9                       l1621 0538                       l1605 04E3  
                     l1541 01B5                       l1533 0199                       l1525 015E  
                     l1295 0E94                       l1359 0F77                       l1367 0EB2  
                     l1471 0053                       l1463 0030                       l1455 00A6  
                     l1447 008E                       l1383 0EDD                       l1375 0EC9  
                     l1703 07DD                       l1631 05C1                       l1623 0554  
                     l1615 04FE                       l1607 04EB                       l1551 01D9  
                     l1543 01CA                       l1535 019F                       l1711 021C  
                     l1391 0F10                       l1527 0171                       l1519 012F  
                     l1297 0E9A                       l1369 0EB8                       l1465 0036  
                     l1457 00B7                       l1449 0093                       l1385 0EE1  
                     l1377 0ED1                       l1473 0EE6                       l1705 07DE  
                     l1641 0634                       l1633 05D1                       l1625 0580  
                     l1617 050E                       l1609 04F0                       l1545 01CB  
                     l1537 01AC                       l1713 0221                       l1393 0F1D  
                     l1529 018F                       l1481 0008                       l1801 0485  
                     l1491 02D5                       l1299 0E73                       l1467 003F  
                     l1459 00BC                       l1379 0ED4                       l1475 0EE9  
                     l1707 07E9                       l1651 06E1                       l1643 0651  
                     l1635 05EE                       l1627 059C                       l1619 051B  
                     l1571 0491                       l1547 01D3                       l1731 026B  
                     l1723 024E                       l1715 0225                       l1395 0F24  
                     l1387 0F0A                       l1483 000E                       l1493 02F6  
                     l1469 004D                       l1477 0EF6                       l1661 072D  
                     l1653 0709                       l1645 067E                       l1637 05FE  
                     l1629 05B8                       l1581 04A8                       l1573 0498  
                     l1565 01FA                       l1557 01E1                       l1549 01D5  
                     l1741 02A2                       l1733 0279                       l1725 0253  
                     l1717 0235                       l1397 0F2A                       l1389 0F0C  
                     l1485 0020                       l1495 0302                       l1479 0EFC  
                     l1671 0742                       l1663 072E                       l1655 0712  
                     l1647 068E                       l1639 061B                       l1591 04C4  
                     l1583 04AD                       l1575 049E                       l1567 020A  
                     l1559 01F3                       l1751 02CC                       l1743 02AC  
                     l1735 0289                       l1727 0260                       l1719 0245  
                     l1487 0021                       l1497 0307                       l1681 0767  
                     l1673 0746                       l1665 0737                       l1657 0720  
                     l1649 06BB                       l1593 04CA                       l1585 04B5  
                     l1577 04A2                       l1569 020F                       l1745 02C2  
                     l1737 0294                       l1729 0267                       l1489 0022  
                     l1499 0310                       l1691 07A5                       l1683 0775  
                     l1675 075A                       l1659 0729                       l1667 073D  
                     l1595 04CE                       l1587 04B7                       l1579 04A3  
                     l1747 02C7                       l1739 0298                       l1771 0409  
                     l1763 03AD                       l1693 07B0                       l1685 0779  
                     l1669 0741                       l1597 04CF                       l1589 04BF  
                     l1749 02CB                       l1781 0430                       l1773 0412  
                     l1765 03C4                       l1695 07BF                       l1687 0792  
                     l1679 0762                       l1599 04D4                       l1791 045C  
                     l1783 0438                       l1775 041A                       l1767 03CA  
                     l1697 07C9                       l1689 0798                       l1793 0464  
                     l1785 043E                       l1777 0422                       l1769 03CF  
                     l1699 07CB                       l1795 046A                       l1787 044C  
                     l1779 0428                       l1797 0475                       l1789 0454  
                     l1799 047D                       STR_1 0806                       STR_2 0817  
                     STR_3 0817                       u1000 0126                       u1001 0125  
                     u1010 0F9B                       u1020 0F77                       u1021 0F76  
                     u1110 0FE7                       u1030 0F10                       u1111 0FE6  
                     u1031 0F0F                       u1015 0F96                       u1105 0FD7  
                     u1210 0F09                       u1130 0FFB                       u1211 0F08  
                     u1131 0FFA                       u1115 0FE3                       u1140 0F3D  
                     u1300 020A                       u1220 01AC                       u1060 0F2A  
                     u1205 00AE                       u1141 0F3C                       u1301 0209  
                     u1221 01AB                       u1125 0FEF                       u1061 0F29  
                     u1045 0F17                       u1310 020F                       u1230 01C3  
                     u1070 0FC4                       u1311 020E                       u1071 0FC3  
                     u1055 0F1E                       u1160 0F51                       u1320 04A2  
                     u1240 01D9                       u1161 0F50                       u1401 0546  
                     u1321 04A1                       u1241 01D8                       u1170 007D  
                     u1402 054D                       u1330 04A8                       u1250 01E0  
                     u1090 0FD6                       u1171 007C                       u1155 0F44  
                     u1411 0562                       u1403 0554                       u1331 04A7  
                     u1251 01DF                       u1235 01BE                       u1091 0FD5  
                     u1412 0569                       u1340 04AD                       u1501 069D  
                     u1421 058E                       u1413 0570                       u1341 04AC  
                     u1085 0FC8                       u1190 00A6                       u1510 06C7  
                     u1502 06A4                       u1422 0595                       u1350 04CE  
                     u1270 01F2                       u1191 00A5                       u1503 06AB  
                     u1431 05AA                       u1423 059C                       u1351 04CD  
                     u1271 01F1                       u1600 0746                       u1432 05B1  
                     u1360 04D4                       u1280 01F9                       u1185 0085  
                     u1601 0745                       u1521 06D3                       u1433 05B8  
                     u1361 04D3                       u1281 01F8                       u1265 01E2  
                     u1610 075A                       u1530 06EF                       u1522 06DA  
                     u1370 04D9                       u1611 0759                       u1523 06E1  
                     u1515 06C2                       u1451 05E0                       u1371 04D8  
                     u1620 0761                       u1452 05E7                       u1380 04F0  
                     u1700 0225                       u1621 0760                       u1541 06FB  
                     u1461 060D                       u1453 05EE                       u1445 05BA  
                     u1381 04EF                       u1701 0224                       u1630 0767  
                     u1542 0702                       u1462 0614                       u1390 04F5  
                     u1710 0245                       u1631 0766                       u1543 0709  
                     u1535 06EA                       u1463 061B                       u1391 04F4  
                     u1295 01FC                       u1711 0244                       u1640 0779  
                     u1800 02B7                       u1641 0778                       u1481 0643  
                     u1650 0788                       u1570 072D                       u1482 064A  
                     u1810 02C7                       u1730 0266                       u1571 072C  
                     u1555 070B                       u1491 0670                       u1483 0651  
                     u1475 061D                       u1811 02C6                       u1731 0265  
                     u1660 07A5                       u1492 0677                       u1820 02CB  
                     u1661 07A4                       u1565 0722                       u1493 067E  
                     u1821 02CA                       u1805 02B2                       u1725 0258  
                     u1670 07BF                       u1590 0741                       u1750 0288  
                     u1671 07BE                       u1655 0783                       u1591 0740  
                     u1751 0287                       u1680 07DD                       u1681 07DC  
                     u1665 07A1                       u1585 0730                       u1745 027A  
                     u1770 0298                       u1690 0221                       u1907 0351  
                     u1675 07BB                       u1771 0297                       u1691 0220  
                     u1780 029E                       u1917 0379                       u1837 0EDF  
                     u1781 029D                       u1765 028D                       u1790 02A2  
                     u1927 03A6                       u1847 003A                       u1791 02A1  
                     u1857 0049                       u1867 0055                       _PEIE 005E  
                     u1877 0EBF                       u1887 02FC                       u1897 0329  
                     _dec0 004C                       _dec1 004B          ?_Lcd_Write_String 0070  
                     _main 03AD                       _var0 0049                       _temp 0047  
                     btemp 007E                       start 0000         ??_Lcd_Write_String 0075  
          __end_of_Lcd_Cmd 0EC8           ?_I2C_Master_Init 0020           ?_I2C_Master_Read 0070  
         ?_I2C_Master_Wait 0070           ?_I2C_Master_Stop 0070              ___fltol@sign1 0043  
                    ?_main 0070            __end_of___flmul 07F2            __end_of___fltol 021B  
                    _ANSEL 0188            __end_of___lldiv 012F            __end_of___lwdiv 1000  
                    _PORTA 0005                      _PORTB 0006                      _PORTC 0007  
                    _PORTD 0008                      _PORTE 0009    __size_of_Lcd_Set_Cursor 0052  
                    _TRISA 0085                      _TRISB 0086                      _TRISC 0087  
                    _TRISD 0088                      _SSPIE 0463                      _TRISE 0089  
                    _SSPIF 0063                      _unit0 004E                      pclath 000A  
                    status 0003                      wtemp0 007E           __end_of_Lcd_Init 0077  
         __end_of_Lcd_Port 0E78            __initialization 07F2               __end_of_main 0491  
                   ??_main 0045         __size_of_Lcd_Clear 000D          ?_I2C_Master_Start 0070  
        ?_I2C_Master_Write 0070         ??_I2C_Master_Start 0070         ??_I2C_Master_Write 0072  
           char_2_dec@zeta 007C                     _ANSELH 0189                  ??_Lcd_Cmd 0071  
  __size_of_Lcd_Write_Char 001D                     _SSPADD 0093                     _TRISC3 043B  
                   _TRISC4 043C                     _SSPCON 0014                     _SSPBUF 0013  
         __end_of___xxtofl 02D5                     ___wmul 0F0A                  ??___flmul 0028  
                ??___fltol 003E                  ??___lldiv 0078                  ??___lwdiv 0074  
       __size_of__Umul8_16 0027            Lcd_Set_Cursor@a 0077            Lcd_Set_Cursor@b 0074  
          Lcd_Set_Cursor@y 0079            Lcd_Set_Cursor@z 0078               ___xxtofl@arg 007A  
             ___xxtofl@exp 0079               ___xxtofl@val 0070    __end_of__initialization 07FC  
        __end_of_Lcd_Clear 0EAE                 ___fltol@f1 003A             __pcstackCOMMON 0070  
           _Lcd_Set_Cursor 0077                 _char_2_dec 012F                  ?_Lcd_Init 0070  
                ?_Lcd_Port 0070                 __pbssBANK0 0047          __end_of__Umul8_16 0F56  
               __pmaintext 03AD                    ?___wmul 0070              ??_I2C_Command 0076  
__size_of_Lcd_Write_String 0025     __end_of_Lcd_Set_Cursor 00C9                  ?___xxtofl 0070  
               ??_Lcd_Init 0074                 ??_Lcd_Port 0070                    _SSPCON2 0091  
                  _SSPSTAT 0094                 __stringtab 0800             _Lcd_Write_Char 0EC8  
               _initCONFIG 0008                    _Lcd_Cmd 0EAE                    ___flmul 0491  
                  ___fltol 019F                    ___lldiv 00C9            __size_of___wmul 0025  
                  ___lwdiv 0FBC            ?_Lcd_Set_Cursor 0074                    __ptext1 0008  
                  __ptext2 0F84                    __ptext3 00C9                    __ptext4 012F  
                  __ptext5 0F0A                    __ptext6 0FBC                    __ptext7 021B  
                  __ptext8 019F                    __ptext9 0491                 ??___xxtofl 0074  
      __end_of_I2C_Command 03AD   __size_of_I2C_Master_Init 0038   __size_of_I2C_Master_Read 002E  
 __size_of_I2C_Master_Wait 000D                ?_char_2_dec 0078   __size_of_I2C_Master_Stop 0009  
   __end_of_Lcd_Write_Char 0EE5       end_of_initialization 07FC  __size_of_I2C_Master_Start 0009  
__size_of_I2C_Master_Write 000A            ___lldiv@divisor 0070            ___lldiv@counter 007D  
         I2C_Master_Init@c 0020           I2C_Master_Read@a 0070                  Lcd_Port@a 0070  
            ___xxtofl@sign 0078                  _TRISCbits 0087            ?_Lcd_Write_Char 0070  
        Lcd_Write_String@a 0077          Lcd_Write_String@i 0075                ?_initCONFIG 0070  
              ___flmul@grs 002E                  _Lcd_Clear 0EA1        __size_of_char_2_dec 0070  
              _I2C_Command 02D5             __end_of___wmul 0F2F           _Lcd_Write_String 0EE5  
      start_initialization 07F2          __size_of_Lcd_Init 0047          __size_of_Lcd_Port 0006  
        ??_I2C_Master_Init 0024          ??_I2C_Master_Read 0072          ??_I2C_Master_Wait 0070  
        ??_I2C_Master_Stop 0070                 ?_Lcd_Clear 0070                   ??___wmul 0074  
                __Umul8_16 0F2F            Lcd_Write_Char@a 0072            Lcd_Write_Char@y 0074  
      __size_of_initCONFIG 0028                  ___flmul@a 0024                  ___flmul@b 0020  
                ___latbits 0002              __pcstackBANK0 0020          __size_of___xxtofl 00BA  
                 ?_Lcd_Cmd 0070           _I2C_Master_Start 0E78           _I2C_Master_Write 0E8A  
         ___lwdiv@dividend 0072           ??_Lcd_Set_Cursor 0075                   ?___flmul 0020  
                 ?___fltol 003A                   ?___lldiv 0070                 ?__Umul8_16 0070  
                 ?___lwdiv 0070                  __pstrings 0800               ??_char_2_dec 007A  
         ___lwdiv@quotient 0075             ___wmul@product 0074                   Lcd_Cmd@a 0073  
              ??_Lcd_Clear 0074         __end_of_char_2_dec 019F                __stringbase 0805  
        ___wmul@multiplier 0070           ??_Lcd_Write_Char 0071                   _Lcd_Init 0030  
                 _Lcd_Port 0E72                char_2_dec@z 0078        I2C_Master_Read@temp 0074  
 __end_of_Lcd_Write_String 0F0A               ??_initCONFIG 007E           __size_of_Lcd_Cmd 001A  
              ??__Umul8_16 0072               ?_I2C_Command 0070           __size_of___flmul 0361  
         __size_of___fltol 007C           __size_of___lldiv 0066           __size_of___lwdiv 0044  
       __end_of__stringtab 0806         __end_of_initCONFIG 0030            _I2C_Master_Init 0F84  
          _I2C_Master_Read 0F56                   ___xxtofl 021B            _I2C_Master_Wait 0E94  
          _I2C_Master_Stop 0E81            ___lwdiv@divisor 0070            ___lwdiv@counter 0077  
                 __ptext10 0F2F                   __ptext11 0EE5                   __ptext20 0E81  
                 __ptext12 0EC8                   __ptext21 0E78                   __ptext13 0077  
                 __ptext22 0F56                   __ptext14 0030                   __ptext23 0E94  
                 __ptext15 0EA1                   __ptext16 0EAE                   __ptext17 0E72  
                 __ptext18 02D5                   __ptext19 0E8A              __size_of_main 00E4  
 __end_of_I2C_Master_Start 0E81   __end_of_I2C_Master_Write 0E94                 _INTCONbits 000B  
       Lcd_Write_Char@temp 0073           ___lldiv@dividend 0074                  stringcode 0800  
               _OSCCONbits 008F    __end_of_I2C_Master_Init 0FBC    __end_of_I2C_Master_Read 0F84  
  __end_of_I2C_Master_Wait 0EA1    __end_of_I2C_Master_Stop 0E8A         Lcd_Set_Cursor@temp 007A  
   __Umul8_16@multiplicand 0070           ___lldiv@quotient 0079          I2C_Master_Write@d 0070  
                 stringdir 0800                   stringtab 0800                _SSPCON2bits 0091  
     __Umul8_16@multiplier 0078          __Umul8_16@product 0074  
